Archive member included because of file (symbol)

/opt/gcc-linaro-arm-linux-gnueabihf-4.9-2014.09_linux/bin/../lib/gcc/arm-linux-gnueabihf/4.9.2/libgcc.a(_udivsi3.o)
                              arch/arm/cpu/armv7/built-in.o (__aeabi_uidiv)
/opt/gcc-linaro-arm-linux-gnueabihf-4.9-2014.09_linux/bin/../lib/gcc/arm-linux-gnueabihf/4.9.2/libgcc.a(_divsi3.o)
                              common/built-in.o (__aeabi_idiv)
/opt/gcc-linaro-arm-linux-gnueabihf-4.9-2014.09_linux/bin/../lib/gcc/arm-linux-gnueabihf/4.9.2/libgcc.a(_lshrdi3.o)
                              drivers/mtd/built-in.o (__aeabi_llsr)
/opt/gcc-linaro-arm-linux-gnueabihf-4.9-2014.09_linux/bin/../lib/gcc/arm-linux-gnueabihf/4.9.2/libgcc.a(_ashrdi3.o)
                              drivers/mtd/nand/built-in.o (__aeabi_lasr)
/opt/gcc-linaro-arm-linux-gnueabihf-4.9-2014.09_linux/bin/../lib/gcc/arm-linux-gnueabihf/4.9.2/libgcc.a(_ashldi3.o)
                              drivers/mmc/built-in.o (__aeabi_llsl)
/opt/gcc-linaro-arm-linux-gnueabihf-4.9-2014.09_linux/bin/../lib/gcc/arm-linux-gnueabihf/4.9.2/libgcc.a(_aeabi_ldivmod.o)
                              board/freescale/mx6g2c/built-in.o (__aeabi_ldivmod)
/opt/gcc-linaro-arm-linux-gnueabihf-4.9-2014.09_linux/bin/../lib/gcc/arm-linux-gnueabihf/4.9.2/libgcc.a(_dvmd_lnx.o)
                              /opt/gcc-linaro-arm-linux-gnueabihf-4.9-2014.09_linux/bin/../lib/gcc/arm-linux-gnueabihf/4.9.2/libgcc.a(_udivsi3.o) (__aeabi_idiv0)
/opt/gcc-linaro-arm-linux-gnueabihf-4.9-2014.09_linux/bin/../lib/gcc/arm-linux-gnueabihf/4.9.2/libgcc.a(bpabi.o)
                              /opt/gcc-linaro-arm-linux-gnueabihf-4.9-2014.09_linux/bin/../lib/gcc/arm-linux-gnueabihf/4.9.2/libgcc.a(_aeabi_ldivmod.o) (__gnu_ldivmod_helper)
/opt/gcc-linaro-arm-linux-gnueabihf-4.9-2014.09_linux/bin/../lib/gcc/arm-linux-gnueabihf/4.9.2/libgcc.a(_divdi3.o)
                              /opt/gcc-linaro-arm-linux-gnueabihf-4.9-2014.09_linux/bin/../lib/gcc/arm-linux-gnueabihf/4.9.2/libgcc.a(bpabi.o) (__divdi3)
/opt/gcc-linaro-arm-linux-gnueabihf-4.9-2014.09_linux/bin/../lib/gcc/arm-linux-gnueabihf/4.9.2/libgcc.a(_udivdi3.o)
                              /opt/gcc-linaro-arm-linux-gnueabihf-4.9-2014.09_linux/bin/../lib/gcc/arm-linux-gnueabihf/4.9.2/libgcc.a(bpabi.o) (__udivdi3)

Discarded input sections

 .data          0x00000000        0x0 arch/arm/cpu/armv7/start.o
 .bss           0x00000000        0x0 arch/arm/cpu/armv7/start.o
 .text.v7_arch_cp15_set_l2aux_ctrl
                0x00000000        0x8 arch/arm/cpu/armv7/built-in.o
 .text.v7_arch_cp15_set_acr
                0x00000000        0x8 arch/arm/cpu/armv7/built-in.o
 .text.sdelay   0x00000000        0xc arch/arm/cpu/armv7/built-in.o
 .text.wait_on_value
                0x00000000       0x34 arch/arm/cpu/armv7/built-in.o
 .text.get_nr_cpus
                0x00000000       0x10 arch/arm/cpu/armv7/built-in.o
 .text.get_board_rev
                0x00000000       0x30 arch/arm/cpu/armv7/built-in.o
 .text.get_boot_device
                0x00000000       0x9c arch/arm/cpu/armv7/built-in.o
 .text.set_wdog_reset
                0x00000000       0x18 arch/arm/cpu/armv7/built-in.o
 .text.setup_gpmi_io_clk
                0x00000000       0x5c arch/arm/cpu/armv7/built-in.o
 .text.enable_usdhc_clk
                0x00000000       0x4c arch/arm/cpu/armv7/built-in.o
 .text.enable_i2c_clk
                0x00000000       0x60 arch/arm/cpu/armv7/built-in.o
 .text.enable_spi_clk
                0x00000000       0x44 arch/arm/cpu/armv7/built-in.o
 .text.enable_qspi_clk
                0x00000000       0x4c arch/arm/cpu/armv7/built-in.o
 .text.mxs_set_vadcclk
                0x00000000       0x24 arch/arm/cpu/armv7/built-in.o
 .data          0x00000000        0x0 arch/arm/cpu/armv7/built-in.o
 .bss           0x00000000        0x0 arch/arm/cpu/armv7/built-in.o
 .text          0x00000000        0x0 arch/arm/imx-common/built-in.o
 .text.imx_iomux_set_gpr_register
                0x00000000       0x3c arch/arm/imx-common/built-in.o
 .text.get_imx_reset_cause
                0x00000000       0x10 arch/arm/imx-common/built-in.o
 .text.imx_ddr_size
                0x00000000       0x64 arch/arm/imx-common/built-in.o
 .text.set_chipselect_size
                0x00000000       0x84 arch/arm/imx-common/built-in.o
 .text.force_idle_bus
                0x00000000      0x1c4 arch/arm/imx-common/built-in.o
 .text.setup_i2c
                0x00000000       0xec arch/arm/imx-common/built-in.o
 .text.usec2ticks
                0x00000000       0x64 arch/arm/imx-common/built-in.o
 .rodata.col_lookup
                0x00000000        0x8 arch/arm/imx-common/built-in.o
 .rodata.bank_lookup
                0x00000000        0x2 arch/arm/imx-common/built-in.o
 .rodata.i2c_bases
                0x00000000       0x10 arch/arm/imx-common/built-in.o
 .rodata.__func__.7022
                0x00000000        0xf arch/arm/imx-common/built-in.o
 .data          0x00000000        0x0 arch/arm/imx-common/built-in.o
 .bss           0x00000000        0x0 arch/arm/imx-common/built-in.o
 .text.reset_misc
                0x00000000        0x4 arch/arm/lib/built-in.o
 .text.flush_cache
                0x00000000        0x4 arch/arm/lib/built-in.o
 .text.flush_dcache_all
                0x00000000        0xc arch/arm/lib/built-in.o
 .text.enable_caches
                0x00000000        0xc arch/arm/lib/built-in.o
 .text.arm_init_before_mmu
                0x00000000        0x4 arch/arm/lib/built-in.o
 .text.mmu_page_table_flush
                0x00000000        0x4 arch/arm/lib/built-in.o
 .data          0x00000000        0x0 arch/arm/lib/built-in.o
 .__secure_start
                0x00000000        0x0 arch/arm/lib/built-in.o
 .__secure_end  0x00000000        0x0 arch/arm/lib/built-in.o
 .bss           0x00000000        0x0 arch/arm/lib/built-in.o
 .text          0x00000000        0x0 board/freescale/mx6g2c/built-in.o
 .text.mmc_get_env_devno
                0x00000000       0x20 board/freescale/mx6g2c/built-in.o
 .text.mmc_map_to_kernel_blk
                0x00000000        0x4 board/freescale/mx6g2c/built-in.o
 .text.check_mmc_autodetect
                0x00000000       0x38 board/freescale/mx6g2c/built-in.o
 .text.board_late_mmc_init
                0x00000000       0x78 board/freescale/mx6g2c/built-in.o
 .data          0x00000000        0x0 board/freescale/mx6g2c/built-in.o
 .data.i2c_pad_info1
                0x00000000       0x30 board/freescale/mx6g2c/built-in.o
 .bss           0x00000000        0x0 board/freescale/mx6g2c/built-in.o
 .text          0x00000000        0x0 common/built-in.o
 .text.hash_finish_crc32
                0x00000000       0x30 common/built-in.o
 .text.hash_update_crc32
                0x00000000       0x24 common/built-in.o
 .text.hash_init_crc32
                0x00000000       0x24 common/built-in.o
 .text.hash_lookup_algo
                0x00000000       0x28 common/built-in.o
 .text.hash_progressive_lookup_algo
                0x00000000       0x3c common/built-in.o
 .text.hash_show
                0x00000000       0x54 common/built-in.o
 .text.hash_block
                0x00000000       0x6c common/built-in.o
 .text.unset_local_var
                0x00000000       0xa0 common/built-in.o
 .text.arch_cpu_init
                0x00000000        0x8 common/built-in.o
 .text.red_led_off
                0x00000000        0x4 common/built-in.o
 .text.green_led_on
                0x00000000        0x4 common/built-in.o
 .text.green_led_off
                0x00000000        0x4 common/built-in.o
 .text.yellow_led_on
                0x00000000        0x4 common/built-in.o
 .text.yellow_led_off
                0x00000000        0x4 common/built-in.o
 .text.blue_led_on
                0x00000000        0x4 common/built-in.o
 .text.blue_led_off
                0x00000000        0x4 common/built-in.o
 .text.arch_reserve_stacks
                0x00000000        0x8 common/built-in.o
 .text.board_init_f_mem
                0x00000000       0x30 common/built-in.o
 .text.board_flash_wp_on
                0x00000000        0x8 common/built-in.o
 .text.fixup_cpu
                0x00000000        0x8 common/built-in.o
 .text.checkboard
                0x00000000       0x18 common/built-in.o
 .text.bootz_setup
                0x00000000       0x18 common/built-in.o
 .text.arch_preboot_os
                0x00000000        0x4 common/built-in.o
 .text.env_flags_parse_varaccess_from_binflags
                0x00000000       0x54 common/built-in.o
 .text.gunzip_bmp
                0x00000000        0x8 common/built-in.o
 .text.invalidate_icache_all
                0x00000000        0xc common/built-in.o
 .text.flush_dcache_all
                0x00000000        0xc common/built-in.o
 .text.of_bus_default_map
                0x00000000       0xdc common/built-in.o
 .text.fdt_read_prop
                0x00000000       0x64 common/built-in.o
 .text.of_bus_default_count_cells
                0x00000000       0x58 common/built-in.o
 .text.of_bus_default_translate
                0x00000000       0xa4 common/built-in.o
 .text.fdt_getprop_u32_default_node
                0x00000000       0x40 common/built-in.o
 .text.fdt_getprop_u32_default
                0x00000000       0x3c common/built-in.o
 .text.do_fixup_by_path_u32
                0x00000000       0x2c common/built-in.o
 .text.do_fixup_by_prop
                0x00000000       0x9c common/built-in.o
 .text.do_fixup_by_prop_u32
                0x00000000       0x38 common/built-in.o
 .text.do_fixup_by_compat
                0x00000000       0x8c common/built-in.o
 .text.do_fixup_by_compat_u32
                0x00000000       0x2c common/built-in.o
 .text.fdt_increase_size
                0x00000000       0x14 common/built-in.o
 .text.fdt_del_node_and_alias
                0x00000000       0x44 common/built-in.o
 .text.fdt_translate_address
                0x00000000      0x29c common/built-in.o
 .text.fdt_node_offset_by_compat_reg
                0x00000000       0x88 common/built-in.o
 .text.fdt_alloc_phandle
                0x00000000       0x58 common/built-in.o
 .text.fdt_set_phandle
                0x00000000       0x60 common/built-in.o
 .text.fdt_create_phandle
                0x00000000       0x64 common/built-in.o
 .text.fdt_set_node_status
                0x00000000       0xf4 common/built-in.o
 .text.fdt_set_status_by_alias
                0x00000000       0x2c common/built-in.o
 .text.fdt_add_edid
                0x00000000       0xa8 common/built-in.o
 .text.fdt_verify_alias_address
                0x00000000       0xcc common/built-in.o
 .text.fdt_get_base_address
                0x00000000       0x54 common/built-in.o
 .text.fdt_read_range
                0x00000000      0x138 common/built-in.o
 .text.fdt_setup_simplefb_node
                0x00000000      0x1fc common/built-in.o
 .text.legacy_miiphy_read
                0x00000000       0x34 common/built-in.o
 .text.legacy_miiphy_write
                0x00000000       0x1c common/built-in.o
 .text.miiphy_register
                0x00000000      0x124 common/built-in.o
 .text.mdio_free
                0x00000000        0x4 common/built-in.o
 .text.mdio_unregister
                0x00000000       0x3c common/built-in.o
 .text.usb_submit_int_msg
                0x00000000        0x4 common/built-in.o
 .text.usb_set_protocol
                0x00000000       0x4c common/built-in.o
 .text.usb_set_idle
                0x00000000       0x54 common/built-in.o
 .text.usb_get_report
                0x00000000       0x5c common/built-in.o
 .text.usb_get_class_descriptor
                0x00000000       0x5c common/built-in.o
 .text.board_usb_init
                0x00000000        0x8 common/built-in.o
 .text.splash_screen_prepare
                0x00000000        0x8 common/built-in.o
 .text.fputc    0x00000000       0x1c common/built-in.o
 .text.fputs    0x00000000       0x1c common/built-in.o
 .text.fprintf  0x00000000       0x4c common/built-in.o
 .text.disable_ctrlc
                0x00000000       0x18 common/built-in.o
 .text.valloc   0x00000000        0xc common/built-in.o
 .text.pvalloc  0x00000000       0x18 common/built-in.o
 .text.cfree    0x00000000        0x4 common/built-in.o
 .text.malloc_usable_size
                0x00000000       0x3c common/built-in.o
 .text.mallopt  0x00000000       0x68 common/built-in.o
 .text.get_table_entry_id
                0x00000000       0x4c common/built-in.o
 .text.genimg_get_os_id
                0x00000000       0x18 common/built-in.o
 .text.genimg_get_arch_id
                0x00000000       0x18 common/built-in.o
 .text.genimg_get_type_id
                0x00000000       0x18 common/built-in.o
 .text.genimg_get_comp_id
                0x00000000       0x18 common/built-in.o
 .text.genimg_get_kernel_addr
                0x00000000       0x24 common/built-in.o
 .text.arch_fixup_fdt
                0x00000000        0x8 common/built-in.o
 .text.get_ram_size
                0x00000000       0xe4 common/built-in.o
 .text.stdio_init
                0x00000000       0x14 common/built-in.o
 .text.cli_simple_parse_line
                0x00000000       0x88 common/built-in.o
 .text.cli_simple_process_macros
                0x00000000      0x214 common/built-in.o
 .text.cli_simple_run_command
                0x00000000      0x158 common/built-in.o
 .text.cli_simple_loop
                0x00000000       0x7c common/built-in.o
 .text.cli_simple_run_command_list
                0x00000000       0x70 common/built-in.o
 .text.run_command_repeatable
                0x00000000       0x1c common/built-in.o
 .rodata.__FUNCTION__.7854
                0x00000000       0x17 common/built-in.o
 .rodata.__FUNCTION__.7253
                0x00000000       0x10 common/built-in.o
 .data          0x00000000        0x0 common/built-in.o
 .data.hash_algo
                0x00000000       0x1c common/built-in.o
 .data.of_busses
                0x00000000       0x14 common/built-in.o
 .data.mmap_threshold
                0x00000000        0x4 common/built-in.o
 .bss           0x00000000        0x0 common/built-in.o
 .bss.env_ptr   0x00000000        0x4 common/built-in.o
 .bss.n_mmaps_max
                0x00000000        0x4 common/built-in.o
 .bss.save_addr
                0x00000000        0x4 common/built-in.o
 .bss.save_size
                0x00000000        0x4 common/built-in.o
 .bss.lastcommand.6807
                0x00000000      0x400 common/built-in.o
 .text          0x00000000        0x0 disk/built-in.o
 .text.get_dev  0x00000000        0x8 disk/built-in.o
 .data          0x00000000        0x0 disk/built-in.o
 .bss           0x00000000        0x0 disk/built-in.o
 .text          0x00000000        0x0 drivers/built-in.o
 .text.dev_get_parent_platdata
                0x00000000       0x34 drivers/built-in.o
 .text.dev_get_parentdata
                0x00000000       0x34 drivers/built-in.o
 .text.device_get_child
                0x00000000       0x58 drivers/built-in.o
 .text.device_find_child_by_seq
                0x00000000       0x64 drivers/built-in.o
 .text.device_get_child_by_seq
                0x00000000       0x70 drivers/built-in.o
 .text.device_find_child_by_of_offset
                0x00000000       0x44 drivers/built-in.o
 .text.device_get_child_by_of_offset
                0x00000000       0x3c drivers/built-in.o
 .text.device_find_first_child
                0x00000000       0x1c drivers/built-in.o
 .text.device_find_next_child
                0x00000000       0x28 drivers/built-in.o
 .text.dev_get_parent
                0x00000000        0x8 drivers/built-in.o
 .text.dev_get_of_data
                0x00000000        0xc drivers/built-in.o
 .text.device_get_uclass_id
                0x00000000       0x10 drivers/built-in.o
 .text.dev_get_addr
                0x00000000        0x8 drivers/built-in.o
 .text.device_bind_driver
                0x00000000       0x80 drivers/built-in.o
 .text.dm_uninit
                0x00000000       0x1c drivers/built-in.o
 .text.uclass_destroy
                0x00000000       0xb0 drivers/built-in.o
 .text.uclass_get_device_by_seq
                0x00000000       0x70 drivers/built-in.o
 .text.uclass_get_device_by_of_offset
                0x00000000       0x84 drivers/built-in.o
 .text.uclass_first_device
                0x00000000       0x4c drivers/built-in.o
 .text.uclass_next_device
                0x00000000       0x48 drivers/built-in.o
 .text.dm_dbg   0x00000000       0x28 drivers/built-in.o
 .text.list_count_items
                0x00000000       0x20 drivers/built-in.o
 .text.device_unbind
                0x00000000      0x118 drivers/built-in.o
 .text.board_video_skip
                0x00000000        0x8 drivers/built-in.o
 .text.video_position_cursor
                0x00000000       0x60 drivers/built-in.o
 .text.video_get_pixel_width
                0x00000000       0x14 drivers/built-in.o
 .text.video_get_pixel_height
                0x00000000       0x14 drivers/built-in.o
 .text.video_get_screen_rows
                0x00000000       0x28 drivers/built-in.o
 .text.video_get_screen_columns
                0x00000000       0x18 drivers/built-in.o
 .text.mxs_lcd_get_panel
                0x00000000       0x3c drivers/built-in.o
 .text.video_get_video_mode
                0x00000000      0x184 drivers/built-in.o
 .text.video_get_ctfb_res_modes
                0x00000000       0xf4 drivers/built-in.o
 .text.video_get_option_string
                0x00000000       0xb0 drivers/built-in.o
 .text.video_get_option_int
                0x00000000       0x84 drivers/built-in.o
 .text.video_edid_dtd_to_ctfb_res_modes
                0x00000000      0x268 drivers/built-in.o
 .text.input_tstc
                0x00000000       0x48 drivers/built-in.o
 .text.input_getc
                0x00000000       0x58 drivers/built-in.o
 .text.input_send_keycodes
                0x00000000      0x3bc drivers/built-in.o
 .text.input_add_table
                0x00000000       0x40 drivers/built-in.o
 .text.input_set_delays
                0x00000000        0xc drivers/built-in.o
 .text.input_init
                0x00000000       0xdc drivers/built-in.o
 .text.input_stdio_register
                0x00000000       0x54 drivers/built-in.o
 .rodata.__func__.8149
                0x00000000       0x13 drivers/built-in.o
 .rodata.__func__.8141
                0x00000000       0x18 drivers/built-in.o
 .rodata.vesa_modes
                0x00000000       0xe4 drivers/built-in.o
 .rodata.kbd_to_ansi364
                0x00000000       0x20 drivers/built-in.o
 .rodata.kbd_plain_xlate
                0x00000000       0x63 drivers/built-in.o
 .rodata.CSWTCH.28
                0x00000000        0xd drivers/built-in.o
 .data          0x00000000        0x0 drivers/built-in.o
 .data.kbd_ctrl_xlate
                0x00000000       0x63 drivers/built-in.o
 .data.kbd_shift_xlate
                0x00000000       0x63 drivers/built-in.o
 .bss           0x00000000        0x0 drivers/built-in.o
 .bss.desc      0x00000000       0x80 drivers/built-in.o
 .text          0x00000000        0x0 drivers/dma/built-in.o
 .text.mxs_dma_circ_start
                0x00000000       0x6c drivers/dma/built-in.o
 .data          0x00000000        0x0 drivers/dma/built-in.o
 .bss           0x00000000        0x0 drivers/dma/built-in.o
 .text          0x00000000        0x0 drivers/gpio/built-in.o
 .text.gpio_free
                0x00000000        0x8 drivers/gpio/built-in.o
 .data          0x00000000        0x0 drivers/gpio/built-in.o
 .bss           0x00000000        0x0 drivers/gpio/built-in.o
 .text          0x00000000        0x0 drivers/i2c/built-in.o
 .text.i2c_reloc_fixup
                0x00000000        0x4 drivers/i2c/built-in.o
 .text.i2c_init_board
                0x00000000        0x4 drivers/i2c/built-in.o
 .text.i2c_reg_read
                0x00000000       0x20 drivers/i2c/built-in.o
 .text.i2c_reg_write
                0x00000000       0x20 drivers/i2c/built-in.o
 .text.i2c_get_base
                0x00000000       0x14 drivers/i2c/built-in.o
 .data          0x00000000        0x0 drivers/i2c/built-in.o
 .bss           0x00000000        0x0 drivers/i2c/built-in.o
 .text          0x00000000        0x0 drivers/mmc/built-in.o
 .text.fdt_fixup_esdhc
                0x00000000       0x5c drivers/mmc/built-in.o
 .text.board_mmc_getcd
                0x00000000        0x8 drivers/mmc/built-in.o
 .text.mmc_register
                0x00000000       0x20 drivers/mmc/built-in.o
 .text.mmc_destroy
                0x00000000        0x4 drivers/mmc/built-in.o
 .text.cpu_mmc_init
                0x00000000        0x8 drivers/mmc/built-in.o
 .text.board_mmc_init
                0x00000000        0x8 drivers/mmc/built-in.o
 .text.mmc_set_preinit
                0x00000000        0x8 drivers/mmc/built-in.o
 .rodata.__func__.7278
                0x00000000        0xd drivers/mmc/built-in.o
 .data          0x00000000        0x0 drivers/mmc/built-in.o
 .bss           0x00000000        0x0 drivers/mmc/built-in.o
 .text          0x00000000        0x0 drivers/mtd/built-in.o
 .text.idr_remove
                0x00000000       0x14 drivers/mtd/built-in.o
 .text.idr_find
                0x00000000       0x14 drivers/mtd/built-in.o
 .text.idr_alloc
                0x00000000       0x3c drivers/mtd/built-in.o
 .text.mtd_get_unmapped_area
                0x00000000       0x60 drivers/mtd/built-in.o
 .text.mtd_panic_write
                0x00000000       0xa0 drivers/mtd/built-in.o
 .text.mtd_get_fact_prot_info
                0x00000000       0x34 drivers/mtd/built-in.o
 .text.mtd_read_fact_prot_reg
                0x00000000       0x44 drivers/mtd/built-in.o
 .text.mtd_get_user_prot_info
                0x00000000       0x34 drivers/mtd/built-in.o
 .text.mtd_read_user_prot_reg
                0x00000000       0x44 drivers/mtd/built-in.o
 .text.mtd_write_user_prot_reg
                0x00000000       0x64 drivers/mtd/built-in.o
 .text.mtd_lock_user_prot_reg
                0x00000000       0x2c drivers/mtd/built-in.o
 .text.mtd_lock
                0x00000000       0x74 drivers/mtd/built-in.o
 .text.mtd_is_locked
                0x00000000       0x74 drivers/mtd/built-in.o
 .data          0x00000000        0x0 drivers/mtd/built-in.o
 .bss           0x00000000        0x0 drivers/mtd/built-in.o
 .bss.mtd_table
                0x00000000       0x80 drivers/mtd/built-in.o
 .text          0x00000000        0x0 drivers/mtd/nand/built-in.o
 .data          0x00000000        0x0 drivers/mtd/nand/built-in.o
 .data.nand_manuf_ids
                0x00000000       0x70 drivers/mtd/nand/built-in.o
 .bss           0x00000000        0x0 drivers/mtd/nand/built-in.o
 .text          0x00000000        0x0 drivers/mtd/ubi/built-in.o
 .text.ubi_enumerate_volumes
                0x00000000       0x48 drivers/mtd/ubi/built-in.o
 .text.ubi_get_by_major
                0x00000000       0x50 drivers/mtd/ubi/built-in.o
 .text.ubi_major2num
                0x00000000       0x44 drivers/mtd/ubi/built-in.o
 .text.ubi_vtbl_rename_volumes
                0x00000000      0x134 drivers/mtd/ubi/built-in.o
 .text.ubi_remove_volume
                0x00000000       0xf4 drivers/mtd/ubi/built-in.o
 .text.ubi_rename_volumes
                0x00000000       0xa4 drivers/mtd/ubi/built-in.o
 .text.ubi_start_leb_change
                0x00000000       0xd0 drivers/mtd/ubi/built-in.o
 .text.ubi_more_leb_change_data
                0x00000000      0x118 drivers/mtd/ubi/built-in.o
 .text.ubi_leb_write
                0x00000000       0xd0 drivers/mtd/ubi/built-in.o
 .text.ubi_leb_change
                0x00000000       0xc4 drivers/mtd/ubi/built-in.o
 .text.ubi_leb_erase
                0x00000000       0x8c drivers/mtd/ubi/built-in.o
 .text.ubi_leb_map
                0x00000000       0x90 drivers/mtd/ubi/built-in.o
 .text.ubi_sync
                0x00000000       0x3c drivers/mtd/ubi/built-in.o
 .text.ubi_flush
                0x00000000       0x40 drivers/mtd/ubi/built-in.o
 .text.ubi_next_sqnum
                0x00000000       0x1c drivers/mtd/ubi/built-in.o
 .text.ubi_eba_atomic_leb_change
                0x00000000      0x364 drivers/mtd/ubi/built-in.o
 .text.self_check_eba
                0x00000000      0x21c drivers/mtd/ubi/built-in.o
 .text.ubi_thread
                0x00000000       0xb8 drivers/mtd/ubi/built-in.o
 .text.ubi_dump_mkvol_req
                0x00000000       0x1c drivers/mtd/ubi/built-in.o
 .data          0x00000000        0x0 drivers/mtd/ubi/built-in.o
 .bss           0x00000000        0x0 drivers/mtd/ubi/built-in.o
 .text          0x00000000        0x0 drivers/net/built-in.o
 .data          0x00000000        0x0 drivers/net/built-in.o
 .bss           0x00000000        0x0 drivers/net/built-in.o
 .text          0x00000000        0x0 drivers/net/phy/built-in.o
 .text.miiphy_reset
                0x00000000       0x24 drivers/net/phy/built-in.o
 .text.phy_connect
                0x00000000       0x50 drivers/net/phy/built-in.o
 .text.board_phy_config
                0x00000000       0x1c drivers/net/phy/built-in.o
 .text.phy_shutdown
                0x00000000       0x28 drivers/net/phy/built-in.o
 .data          0x00000000        0x0 drivers/net/phy/built-in.o
 .bss           0x00000000        0x0 drivers/net/phy/built-in.o
 .text          0x00000000        0x0 drivers/serial/built-in.o
 .text.serial_reinit_all
                0x00000000       0x2c drivers/serial/built-in.o
 .data          0x00000000        0x0 drivers/serial/built-in.o
 .bss           0x00000000        0x0 drivers/serial/built-in.o
 .text          0x00000000        0x0 drivers/spi/built-in.o
 .text.spi_set_wordlen
                0x00000000       0x30 drivers/spi/built-in.o
 .text.spi_do_alloc_slave
                0x00000000       0x4c drivers/spi/built-in.o
 .rodata.str1.1
                0x00000000       0x19 drivers/spi/built-in.o
 .data          0x00000000        0x0 drivers/spi/built-in.o
 .bss           0x00000000        0x0 drivers/spi/built-in.o
 .comment       0x00000000       0x64 drivers/spi/built-in.o
 .note.GNU-stack
                0x00000000        0x0 drivers/spi/built-in.o
 .ARM.attributes
                0x00000000       0x33 drivers/spi/built-in.o
 .debug_aranges
                0x00000000       0x28 drivers/spi/built-in.o
 .debug_info    0x00000000      0x515 drivers/spi/built-in.o
 .debug_abbrev  0x00000000      0x1a5 drivers/spi/built-in.o
 .debug_line    0x00000000      0x10d drivers/spi/built-in.o
 .debug_frame   0x00000000       0x4c drivers/spi/built-in.o
 .debug_str     0x00000000      0x4a7 drivers/spi/built-in.o
 .debug_loc     0x00000000      0x10f drivers/spi/built-in.o
 .debug_ranges  0x00000000       0x18 drivers/spi/built-in.o
 .text          0x00000000        0x0 drivers/usb/eth/built-in.o
 .text.is_eth_dev_on_usb_host
                0x00000000       0x60 drivers/usb/eth/built-in.o
 .data          0x00000000        0x0 drivers/usb/eth/built-in.o
 .bss           0x00000000        0x0 drivers/usb/eth/built-in.o
 .text          0x00000000        0x0 drivers/usb/host/built-in.o
 .text.ehci_get_port_speed
                0x00000000        0x8 drivers/usb/host/built-in.o
 .text.ehci_set_usbmode
                0x00000000       0x24 drivers/usb/host/built-in.o
 .text.board_usb_phy_mode
                0x00000000        0x4 drivers/usb/host/built-in.o
 .text.board_ehci_hcd_init
                0x00000000        0x8 drivers/usb/host/built-in.o
 .data          0x00000000        0x0 drivers/usb/host/built-in.o
 .bss           0x00000000        0x0 drivers/usb/host/built-in.o
 .text          0x00000000        0x0 fs/built-in.o
 .text.fs_uuid  0x00000000       0x28 fs/built-in.o
 .text.fs_write
                0x00000000       0x88 fs/built-in.o
 .text.do_save  0x00000000      0x180 fs/built-in.o
 .text.do_fs_uuid
                0x00000000       0x8c fs/built-in.o
 .text.do_fs_type
                0x00000000       0x70 fs/built-in.o
 .text.fat_register_device
                0x00000000       0x88 fs/built-in.o
 .text.file_fat_read
                0x00000000       0x38 fs/built-in.o
 .text.file_getfsname
                0x00000000       0x14 fs/built-in.o
 .text.file_cd  0x00000000      0x1bc fs/built-in.o
 .text.file_detectfs
                0x00000000       0x40 fs/built-in.o
 .text.file_ls  0x00000000       0x98 fs/built-in.o
 .text.file_read
                0x00000000       0xa8 fs/built-in.o
 .text.ubifs_leb_write
                0x00000000       0x48 fs/built-in.o
 .text.ubifs_leb_change
                0x00000000       0x44 fs/built-in.o
 .text.ubifs_leb_map
                0x00000000       0x44 fs/built-in.o
 .text.ubifs_prepare_node
                0x00000000      0x128 fs/built-in.o
 .text.ubifs_prep_grp_node
                0x00000000       0xfc fs/built-in.o
 .text.ubifs_wbuf_sync_nolock
                0x00000000      0x120 fs/built-in.o
 .text.ubifs_wbuf_add_ino_nolock
                0x00000000       0x2c fs/built-in.o
 .text.ubifs_sync_wbufs_by_inode
                0x00000000       0x8c fs/built-in.o
 .text.set_anon_super
                0x00000000        0x8 fs/built-in.o
 .text.iget_failed
                0x00000000        0x4 fs/built-in.o
 .text.unlock_new_inode
                0x00000000        0x4 fs/built-in.o
 .text.fixup_leb
                0x00000000       0x60 fs/built-in.o
 .text.ubifs_write_sb_node
                0x00000000       0x40 fs/built-in.o
 .text.ubifs_fixup_free_space
                0x00000000      0x1fc fs/built-in.o
 .text.pack_bits
                0x00000000       0xd0 fs/built-in.o
 .text.scan_get_pnode
                0x00000000      0x17c fs/built-in.o
 .text.ubifs_pack_pnode
                0x00000000       0xec fs/built-in.o
 .text.ubifs_pack_nnode
                0x00000000       0xe0 fs/built-in.o
 .text.ubifs_pack_ltab
                0x00000000       0xb4 fs/built-in.o
 .text.ubifs_pack_lsave
                0x00000000       0x9c fs/built-in.o
 .text.ubifs_create_dflt_lpt
                0x00000000      0x848 fs/built-in.o
 .text.scan_get_nnode
                0x00000000      0x120 fs/built-in.o
 .text.ubifs_lpt_lookup
                0x00000000       0x9c fs/built-in.o
 .text.ubifs_lpt_scan_nolock
                0x00000000      0x324 fs/built-in.o
 .text.dbg_check_lpt_nodes
                0x00000000        0x8 fs/built-in.o
 .text.first_dirty_cnode
                0x00000000       0x44 fs/built-in.o
 .text.alloc_lpt_leb
                0x00000000       0xdc fs/built-in.o
 .text.need_write_all
                0x00000000       0xa0 fs/built-in.o
 .text.lpt_tgc_start
                0x00000000       0x78 fs/built-in.o
 .text.pnode_lookup
                0x00000000       0x84 fs/built-in.o
 .text.do_make_pnode_dirty
                0x00000000       0xa8 fs/built-in.o
 .text.lpt_gc   0x00000000      0x448 fs/built-in.o
 .text.ubifs_lpt_start_commit
                0x00000000      0x8ec fs/built-in.o
 .text.ubifs_lpt_post_commit
                0x00000000       0xa0 fs/built-in.o
 .text.ubifs_ensure_cat
                0x00000000       0x58 fs/built-in.o
 .text.ubifs_get_lp_stats
                0x00000000       0x14 fs/built-in.o
 .text.ubifs_read_one_lp
                0x00000000       0x30 fs/built-in.o
 .text.ubifs_fast_find_free
                0x00000000       0x18 fs/built-in.o
 .text.ubifs_fast_find_empty
                0x00000000       0x14 fs/built-in.o
 .text.ubifs_fast_find_freeable
                0x00000000       0x14 fs/built-in.o
 .text.ubifs_fast_find_frdi_idx
                0x00000000       0x14 fs/built-in.o
 .text.dbg_check_cats
                0x00000000        0x8 fs/built-in.o
 .text.dbg_check_heap
                0x00000000        0x4 fs/built-in.o
 .text.dbg_check_lprops
                0x00000000        0x8 fs/built-in.o
 .text.left_znode
                0x00000000       0x70 fs/built-in.o
 .text.lookup_znode
                0x00000000      0x2c4 fs/built-in.o
 .text.ubifs_tnc_get_bu_keys
                0x00000000      0x258 fs/built-in.o
 .text.ubifs_tnc_bulk_read
                0x00000000      0x1e0 fs/built-in.o
 .text.ubifs_tnc_lookup_nm
                0x00000000       0xd8 fs/built-in.o
 .text.ubifs_tnc_replace
                0x00000000      0x300 fs/built-in.o
 .text.is_idx_node_in_tnc
                0x00000000       0x38 fs/built-in.o
 .text.ubifs_tnc_has_node
                0x00000000      0x1cc fs/built-in.o
 .text.ubifs_dirty_idx_node
                0x00000000       0x48 fs/built-in.o
 .text.dbg_check_inode_size
                0x00000000        0x8 fs/built-in.o
 .text.ubifs_tnc_levelorder_next
                0x00000000      0x160 fs/built-in.o
 .text.dump_znode
                0x00000000        0x8 fs/built-in.o
 .text.dbg_snprintf_key
                0x00000000       0xfc fs/built-in.o
 .text.dbg_ntype
                0x00000000       0x1c fs/built-in.o
 .text.dbg_cstate
                0x00000000       0x1c fs/built-in.o
 .text.dbg_jhead
                0x00000000       0x1c fs/built-in.o
 .text.ubifs_dump_budget_req
                0x00000000        0x4 fs/built-in.o
 .text.ubifs_dump_lstats
                0x00000000        0x4 fs/built-in.o
 .text.ubifs_dump_budg
                0x00000000        0x4 fs/built-in.o
 .text.ubifs_dump_lprop
                0x00000000       0x3c fs/built-in.o
 .text.ubifs_dump_lprops
                0x00000000       0x50 fs/built-in.o
 .text.ubifs_dump_lpt_info
                0x00000000        0x4 fs/built-in.o
 .text.ubifs_dump_sleb
                0x00000000       0x14 fs/built-in.o
 .text.ubifs_dump_leb
                0x00000000       0x70 fs/built-in.o
 .text.ubifs_dump_heap
                0x00000000        0x4 fs/built-in.o
 .text.ubifs_dump_tnc
                0x00000000       0x24 fs/built-in.o
 .text.dbg_walk_index
                0x00000000      0x198 fs/built-in.o
 .text.ubifs_dump_index
                0x00000000       0x14 fs/built-in.o
 .text.add_node
                0x00000000       0xd0 fs/built-in.o
 .text.destroy_done_tree
                0x00000000       0x30 fs/built-in.o
 .text.ubifs_add_bud_to_log
                0x00000000      0x294 fs/built-in.o
 .text.ubifs_log_start_commit
                0x00000000      0x30c fs/built-in.o
 .text.ubifs_log_end_commit
                0x00000000       0x2c fs/built-in.o
 .text.ubifs_log_post_commit
                0x00000000       0xb0 fs/built-in.o
 .text.ubifs_consolidate_log
                0x00000000      0x2ac fs/built-in.o
 .text.ubifs_add_orphan
                0x00000000      0x110 fs/built-in.o
 .text.ubifs_delete_orphan
                0x00000000       0xd0 fs/built-in.o
 .text.ubifs_orphan_start_commit
                0x00000000       0x74 fs/built-in.o
 .text.ubifs_orphan_end_commit
                0x00000000      0x3ac fs/built-in.o
 .text.recover_head
                0x00000000       0xd4 fs/built-in.o
 .text.ubifs_write_rcvrd_mst_node
                0x00000000      0x158 fs/built-in.o
 .text.ubifs_recover_inl_heads
                0x00000000       0x3c fs/built-in.o
 .text.ubifs_clean_lebs
                0x00000000      0x1c8 fs/built-in.o
 .text.ubifs_rcvry_gc_commit
                0x00000000        0x8 fs/built-in.o
 .rodata.filesystems
                0x00000000       0x18 fs/built-in.o
 .rodata.CSWTCH.39
                0x00000000       0x14 fs/built-in.o
 .rodata.CSWTCH.46
                0x00000000       0x18 fs/built-in.o
 .rodata.CSWTCH.48
                0x00000000        0xc fs/built-in.o
 .rodata.CSWTCH.44
                0x00000000       0x30 fs/built-in.o
 .data          0x00000000        0x0 fs/built-in.o
 .data.file_cwd
                0x00000000      0x200 fs/built-in.o
 .data.current_filesystem
                0x00000000        0x4 fs/built-in.o
 .bss           0x00000000        0x0 fs/built-in.o
 .text          0x00000000        0x0 lib/built-in.o
 .text.inflateInit_
                0x00000000       0x10 lib/built-in.o
 .text.fdt_first_subnode
                0x00000000       0x34 lib/built-in.o
 .text.fdt_next_subnode
                0x00000000       0x50 lib/built-in.o
 .text.fdt_getprop_by_offset
                0x00000000       0x48 lib/built-in.o
 .text.fdt_get_phandle
                0x00000000       0x70 lib/built-in.o
 .text.fdt_get_alias
                0x00000000       0x28 lib/built-in.o
 .text.fdt_get_path
                0x00000000      0x138 lib/built-in.o
 .text.fdt_parent_offset
                0x00000000       0x30 lib/built-in.o
 .text.fdt_node_offset_by_prop_value
                0x00000000       0x98 lib/built-in.o
 .text.fdt_node_offset_by_phandle
                0x00000000       0x74 lib/built-in.o
 .text.fdt_stringlist_contains
                0x00000000       0x7c lib/built-in.o
 .text.fdt_count_strings
                0x00000000       0x5c lib/built-in.o
 .text.fdt_find_string
                0x00000000       0x8c lib/built-in.o
 .text.fdt_get_string_index
                0x00000000       0x64 lib/built-in.o
 .text.fdt_get_string
                0x00000000       0x18 lib/built-in.o
 .text.fdt_node_check_compatible
                0x00000000       0x40 lib/built-in.o
 .text.fdt_node_offset_by_compatible
                0x00000000       0x70 lib/built-in.o
 .text.fdt_set_name
                0x00000000       0x88 lib/built-in.o
 .text.fdt_appendprop
                0x00000000       0xd4 lib/built-in.o
 .text.fdt_pack
                0x00000000       0x5c lib/built-in.o
 .text._fdt_sw_check_header
                0x00000000       0x1c lib/built-in.o
 .text._fdt_grab_space
                0x00000000       0x64 lib/built-in.o
 .text.fdt_create
                0x00000000       0x64 lib/built-in.o
 .text.fdt_resize
                0x00000000       0xb4 lib/built-in.o
 .text.fdt_add_reservemap_entry
                0x00000000       0x90 lib/built-in.o
 .text.fdt_finish_reservemap
                0x00000000       0x1c lib/built-in.o
 .text.fdt_begin_node
                0x00000000       0x68 lib/built-in.o
 .text.fdt_end_node
                0x00000000       0x40 lib/built-in.o
 .text.fdt_property
                0x00000000      0x114 lib/built-in.o
 .text.fdt_finish
                0x00000000      0x100 lib/built-in.o
 .text.fdt_setprop_inplace
                0x00000000       0x44 lib/built-in.o
 .text.fdt_nop_property
                0x00000000       0x40 lib/built-in.o
 .text.fdt_nop_node
                0x00000000       0x50 lib/built-in.o
 .text.fdt_find_regions
                0x00000000      0x39c lib/built-in.o
 .text.fdt_create_empty_tree
                0x00000000       0x74 lib/built-in.o
 .text.crc7     0x00000000       0x24 lib/built-in.o
 .text.crc8     0x00000000       0x40 lib/built-in.o
 .text.lmb_dump_all
                0x00000000        0x4 lib/built-in.o
 .text.lmb_is_reserved
                0x00000000       0x5c lib/built-in.o
 .text.arch_lmb_reserve
                0x00000000        0x4 lib/built-in.o
 .text.ldiv     0x00000000       0x50 lib/built-in.o
 .text.strmhz   0x00000000       0x64 lib/built-in.o
 .text.__rb_erase_color
                0x00000000      0x250 lib/built-in.o
 .text.__rb_insert_augmented
                0x00000000      0x198 lib/built-in.o
 .text.rb_prev  0x00000000       0x60 lib/built-in.o
 .text.rb_replace_node
                0x00000000       0x60 lib/built-in.o
 .text.crc32_wd_buf
                0x00000000       0x38 lib/built-in.o
 .text.strncasecmp
                0x00000000       0x9c lib/built-in.o
 .text.strcasecmp
                0x00000000        0x8 lib/built-in.o
 .text.strspn   0x00000000       0x3c lib/built-in.o
 .text.strtok   0x00000000       0x88 lib/built-in.o
 .text.strswab  0x00000000       0x48 lib/built-in.o
 .text.bcopy    0x00000000       0x24 lib/built-in.o
 .text.memscan  0x00000000       0x2c lib/built-in.o
 .text.memchr_inv
                0x00000000      0x130 lib/built-in.o
 .text.tick_to_time
                0x00000000       0x64 lib/built-in.o
 .text.get_ticks
                0x00000000       0x40 lib/built-in.o
 .text.timer_init
                0x00000000        0x8 lib/built-in.o
 .text.get_timer
                0x00000000       0x18 lib/built-in.o
 .text.timer_get_us
                0x00000000       0x24 lib/built-in.o
 .text.__udelay
                0x00000000       0x9c lib/built-in.o
 .text.vsnprintf
                0x00000000        0x4 lib/built-in.o
 .text.scnprintf
                0x00000000       0x28 lib/built-in.o
 .text.__assert_fail
                0x00000000       0x14 lib/built-in.o
 .text.print_grouped_ull
                0x00000000       0x88 lib/built-in.o
 .rodata.z_errmsg
                0x00000000       0x28 lib/built-in.o
 .rodata.crc7_syndrome_table
                0x00000000      0x100 lib/built-in.o
 .data          0x00000000        0x0 lib/built-in.o
 .data.cur      0x00000000        0x4 lib/built-in.o
 .data.current  0x00000000        0x4 lib/built-in.o
 .bss           0x00000000        0x0 lib/built-in.o
 .bss.___strtok
                0x00000000        0x4 lib/built-in.o
 .text          0x00000000        0x0 net/built-in.o
 .text.add_ip_checksums
                0x00000000       0x3c net/built-in.o
 .text.eth_get_dev_by_name
                0x00000000       0x84 net/built-in.o
 .text.net_get_udp_handler
                0x00000000       0x10 net/built-in.o
 .text.net_set_arp_handler
                0x00000000       0x20 net/built-in.o
 .text.random_port
                0x00000000       0x18 net/built-in.o
 .text.VLAN_to_string
                0x00000000       0x44 net/built-in.o
 .rodata.__FUNCTION__.7196
                0x00000000       0x14 net/built-in.o
 .data          0x00000000        0x0 net/built-in.o
 .data.TftpRRQTimeoutMSecs
                0x00000000        0x4 net/built-in.o
 .bss           0x00000000        0x0 net/built-in.o
 .bss.net_busy_flag
                0x00000000        0x4 net/built-in.o
 .text          0x00000000        0x0 test/dm/built-in.o
 .data          0x00000000        0x0 test/dm/built-in.o
 .bss           0x00000000        0x0 test/dm/built-in.o
 .text          0x00000000        0x0 arch/arm/lib/eabi_compat.o
 .data          0x00000000        0x0 arch/arm/lib/eabi_compat.o
 .bss           0x00000000        0x0 arch/arm/lib/eabi_compat.o
 .text.__aeabi_unwind_cpp_pr0
                0x00000000        0x4 arch/arm/lib/eabi_compat.o
 .text.__aeabi_unwind_cpp_pr1
                0x00000000        0x4 arch/arm/lib/eabi_compat.o
 .text.__aeabi_memcpy
                0x00000000        0x4 arch/arm/lib/eabi_compat.o
 .text.__aeabi_memset
                0x00000000       0x10 arch/arm/lib/eabi_compat.o
 .data          0x00000000        0x0 /opt/gcc-linaro-arm-linux-gnueabihf-4.9-2014.09_linux/bin/../lib/gcc/arm-linux-gnueabihf/4.9.2/libgcc.a(_udivsi3.o)
 .bss           0x00000000        0x0 /opt/gcc-linaro-arm-linux-gnueabihf-4.9-2014.09_linux/bin/../lib/gcc/arm-linux-gnueabihf/4.9.2/libgcc.a(_udivsi3.o)
 .data          0x00000000        0x0 /opt/gcc-linaro-arm-linux-gnueabihf-4.9-2014.09_linux/bin/../lib/gcc/arm-linux-gnueabihf/4.9.2/libgcc.a(_divsi3.o)
 .bss           0x00000000        0x0 /opt/gcc-linaro-arm-linux-gnueabihf-4.9-2014.09_linux/bin/../lib/gcc/arm-linux-gnueabihf/4.9.2/libgcc.a(_divsi3.o)
 .data          0x00000000        0x0 /opt/gcc-linaro-arm-linux-gnueabihf-4.9-2014.09_linux/bin/../lib/gcc/arm-linux-gnueabihf/4.9.2/libgcc.a(_lshrdi3.o)
 .bss           0x00000000        0x0 /opt/gcc-linaro-arm-linux-gnueabihf-4.9-2014.09_linux/bin/../lib/gcc/arm-linux-gnueabihf/4.9.2/libgcc.a(_lshrdi3.o)
 .data          0x00000000        0x0 /opt/gcc-linaro-arm-linux-gnueabihf-4.9-2014.09_linux/bin/../lib/gcc/arm-linux-gnueabihf/4.9.2/libgcc.a(_ashrdi3.o)
 .bss           0x00000000        0x0 /opt/gcc-linaro-arm-linux-gnueabihf-4.9-2014.09_linux/bin/../lib/gcc/arm-linux-gnueabihf/4.9.2/libgcc.a(_ashrdi3.o)
 .data          0x00000000        0x0 /opt/gcc-linaro-arm-linux-gnueabihf-4.9-2014.09_linux/bin/../lib/gcc/arm-linux-gnueabihf/4.9.2/libgcc.a(_ashldi3.o)
 .bss           0x00000000        0x0 /opt/gcc-linaro-arm-linux-gnueabihf-4.9-2014.09_linux/bin/../lib/gcc/arm-linux-gnueabihf/4.9.2/libgcc.a(_ashldi3.o)
 .data          0x00000000        0x0 /opt/gcc-linaro-arm-linux-gnueabihf-4.9-2014.09_linux/bin/../lib/gcc/arm-linux-gnueabihf/4.9.2/libgcc.a(_aeabi_ldivmod.o)
 .bss           0x00000000        0x0 /opt/gcc-linaro-arm-linux-gnueabihf-4.9-2014.09_linux/bin/../lib/gcc/arm-linux-gnueabihf/4.9.2/libgcc.a(_aeabi_ldivmod.o)
 .data          0x00000000        0x0 /opt/gcc-linaro-arm-linux-gnueabihf-4.9-2014.09_linux/bin/../lib/gcc/arm-linux-gnueabihf/4.9.2/libgcc.a(_dvmd_lnx.o)
 .bss           0x00000000        0x0 /opt/gcc-linaro-arm-linux-gnueabihf-4.9-2014.09_linux/bin/../lib/gcc/arm-linux-gnueabihf/4.9.2/libgcc.a(_dvmd_lnx.o)
 .data          0x00000000        0x0 /opt/gcc-linaro-arm-linux-gnueabihf-4.9-2014.09_linux/bin/../lib/gcc/arm-linux-gnueabihf/4.9.2/libgcc.a(bpabi.o)
 .bss           0x00000000        0x0 /opt/gcc-linaro-arm-linux-gnueabihf-4.9-2014.09_linux/bin/../lib/gcc/arm-linux-gnueabihf/4.9.2/libgcc.a(bpabi.o)
 .data          0x00000000        0x0 /opt/gcc-linaro-arm-linux-gnueabihf-4.9-2014.09_linux/bin/../lib/gcc/arm-linux-gnueabihf/4.9.2/libgcc.a(_divdi3.o)
 .bss           0x00000000        0x0 /opt/gcc-linaro-arm-linux-gnueabihf-4.9-2014.09_linux/bin/../lib/gcc/arm-linux-gnueabihf/4.9.2/libgcc.a(_divdi3.o)
 .ARM.extab     0x00000000        0x0 /opt/gcc-linaro-arm-linux-gnueabihf-4.9-2014.09_linux/bin/../lib/gcc/arm-linux-gnueabihf/4.9.2/libgcc.a(_divdi3.o)
 .data          0x00000000        0x0 /opt/gcc-linaro-arm-linux-gnueabihf-4.9-2014.09_linux/bin/../lib/gcc/arm-linux-gnueabihf/4.9.2/libgcc.a(_udivdi3.o)
 .bss           0x00000000        0x0 /opt/gcc-linaro-arm-linux-gnueabihf-4.9-2014.09_linux/bin/../lib/gcc/arm-linux-gnueabihf/4.9.2/libgcc.a(_udivdi3.o)
 .ARM.extab     0x00000000        0x0 /opt/gcc-linaro-arm-linux-gnueabihf-4.9-2014.09_linux/bin/../lib/gcc/arm-linux-gnueabihf/4.9.2/libgcc.a(_udivdi3.o)

内存配置

名称           来源             长度             属性
*default*        0x00000000         0xffffffff

Linker script and memory map

Address of section .text set to 0x86800000
                0x00000000                . = 0x0
                0x00000000                . = ALIGN (0x4)

.text           0x86800000    0x53984
 *(.__image_copy_start)
 .__image_copy_start
                0x86800000        0x0 arch/arm/lib/built-in.o
                0x86800000                __image_copy_start
 *(.vectors)
 .vectors       0x86800000      0x300 arch/arm/lib/built-in.o
                0x86800000                _start
                0x86800020                _undefined_instruction
                0x86800024                _software_interrupt
                0x86800028                _prefetch_abort
                0x8680002c                _data_abort
                0x86800030                _not_used
                0x86800034                _irq
                0x86800038                _fiq
                0x86800040                IRQ_STACK_START_IN
 arch/arm/cpu/armv7/start.o(.text*)
 .text          0x86800300       0xb0 arch/arm/cpu/armv7/start.o
                0x86800300                reset
                0x86800304                save_boot_params_ret
                0x86800340                c_runtime_cpu_setup
                0x86800350                save_boot_params
                0x86800354                cpu_init_cp15
                0x868003a8                cpu_init_crit
 *(.text*)
 .text          0x868003b0       0x1c arch/arm/cpu/armv7/built-in.o
                0x868003b0                lowlevel_init
 .text.v7_maint_dcache_all
                0x868003cc       0xd0 arch/arm/cpu/armv7/built-in.o
 .text.invalidate_icache_all
                0x8680049c       0x18 arch/arm/cpu/armv7/built-in.o
                0x8680049c                invalidate_icache_all
 .text.v7_outer_cache_enable
                0x868004b4        0x4 arch/arm/cpu/armv7/built-in.o
                0x868004b4                v7_outer_cache_enable
 .text.v7_outer_cache_disable
                0x868004b8        0x4 arch/arm/cpu/armv7/built-in.o
                0x868004b8                v7_outer_cache_disable
 .text.v7_outer_cache_flush_all
                0x868004bc        0x4 arch/arm/cpu/armv7/built-in.o
                0x868004bc                v7_outer_cache_flush_all
 .text.flush_dcache_all
                0x868004c0       0x14 arch/arm/cpu/armv7/built-in.o
                0x868004c0                flush_dcache_all
 .text.v7_outer_cache_inval_all
                0x868004d4        0x4 arch/arm/cpu/armv7/built-in.o
                0x868004d4                v7_outer_cache_inval_all
 .text.invalidate_dcache_all
                0x868004d8       0x14 arch/arm/cpu/armv7/built-in.o
                0x868004d8                invalidate_dcache_all
 .text.arm_init_before_mmu
                0x868004ec       0x28 arch/arm/cpu/armv7/built-in.o
                0x868004ec                arm_init_before_mmu
 .text.v7_outer_cache_flush_range
                0x86800514        0x4 arch/arm/cpu/armv7/built-in.o
                0x86800514                v7_outer_cache_flush_range
 .text.flush_dcache_range
                0x86800518       0x3c arch/arm/cpu/armv7/built-in.o
                0x86800518                flush_dcache_range
 .text.mmu_page_table_flush
                0x86800554       0x24 arch/arm/cpu/armv7/built-in.o
                0x86800554                mmu_page_table_flush
 .text.flush_cache
                0x86800578        0x8 arch/arm/cpu/armv7/built-in.o
                0x86800578                flush_cache
 .text.v7_outer_cache_inval_range
                0x86800580        0x4 arch/arm/cpu/armv7/built-in.o
                0x86800580                v7_outer_cache_inval_range
 .text.invalidate_dcache_range
                0x86800584       0xac arch/arm/cpu/armv7/built-in.o
                0x86800584                invalidate_dcache_range
 .text.cpu_cache_initialization
                0x86800630        0x4 arch/arm/cpu/armv7/built-in.o
                0x86800630                cpu_cache_initialization
 .text.cleanup_before_linux
                0x86800634       0x28 arch/arm/cpu/armv7/built-in.o
                0x86800634                cleanup_before_linux
 .text.get_cpu_rev
                0x8680065c       0x68 arch/arm/cpu/armv7/built-in.o
                0x8680065c                get_cpu_rev
 .text.init_aips
                0x868006c4       0x58 arch/arm/cpu/armv7/built-in.o
                0x868006c4                init_aips
 .text.arch_cpu_init
                0x8680071c      0x144 arch/arm/cpu/armv7/built-in.o
                0x8680071c                arch_cpu_init
 .text.board_postclk_init
                0x86800860       0x58 arch/arm/cpu/armv7/built-in.o
                0x86800860                board_postclk_init
 .text.enable_caches
                0x868008b8       0x34 arch/arm/cpu/armv7/built-in.o
                0x868008b8                enable_caches
 .text.imx_get_mac_from_fuse
                0x868008ec       0x78 arch/arm/cpu/armv7/built-in.o
                0x868008ec                imx_get_mac_from_fuse
 .text.boot_mode_apply
                0x86800964       0x24 arch/arm/cpu/armv7/built-in.o
                0x86800964                boot_mode_apply
 .text.s_init   0x86800988       0x88 arch/arm/cpu/armv7/built-in.o
                0x86800988                s_init
 .text.reset_misc
                0x86800a10       0x1c arch/arm/cpu/armv7/built-in.o
                0x86800a10                reset_misc
 .text.get_ipg_clk
                0x86800a2c       0x28 arch/arm/cpu/armv7/built-in.o
 .text.get_uart_clk
                0x86800a54       0x5c arch/arm/cpu/armv7/built-in.o
 .text.mxc_get_pll_pfd
                0x86800ab0       0x98 arch/arm/cpu/armv7/built-in.o
 .text.get_usdhc_clk
                0x86800b48       0x68 arch/arm/cpu/armv7/built-in.o
 .text.enable_ocotp_clk
                0x86800bb0       0x24 arch/arm/cpu/armv7/built-in.o
                0x86800bb0                enable_ocotp_clk
 .text.enable_usboh3_clk
                0x86800bd4       0x24 arch/arm/cpu/armv7/built-in.o
                0x86800bd4                enable_usboh3_clk
 .text.enable_enet_clk
                0x86800bf8       0x24 arch/arm/cpu/armv7/built-in.o
                0x86800bf8                enable_enet_clk
 .text.get_periph_clk
                0x86800c1c       0xdc arch/arm/cpu/armv7/built-in.o
                0x86800c1c                get_periph_clk
 .text.get_axi_clk
                0x86800cf8       0x4c arch/arm/cpu/armv7/built-in.o
 .text.enable_lcdif_clock
                0x86800d44       0x40 arch/arm/cpu/armv7/built-in.o
                0x86800d44                enable_lcdif_clock
 .text.mxs_set_lcdclk
                0x86800d84      0x230 arch/arm/cpu/armv7/built-in.o
                0x86800d84                mxs_set_lcdclk
 .text.enable_fec_anatop_clock
                0x86800fb4       0x98 arch/arm/cpu/armv7/built-in.o
                0x86800fb4                enable_fec_anatop_clock
 .text.imx_get_uartclk
                0x8680104c        0x4 arch/arm/cpu/armv7/built-in.o
                0x8680104c                imx_get_uartclk
 .text.enable_thermal_clk
                0x86801050       0x48 arch/arm/cpu/armv7/built-in.o
                0x86801050                enable_thermal_clk
 .text.mxc_get_clock
                0x86801098      0x308 arch/arm/cpu/armv7/built-in.o
                0x86801098                mxc_get_clock
 .text.imx_get_fecclk
                0x868013a0        0x8 arch/arm/cpu/armv7/built-in.o
                0x868013a0                imx_get_fecclk
 .text.do_mx6_showclocks
                0x868013a8      0x230 arch/arm/cpu/armv7/built-in.o
                0x868013a8                do_mx6_showclocks
 .text.imx_iomux_v3_setup_pad
                0x868015d8       0xb0 arch/arm/imx-common/built-in.o
                0x868015d8                imx_iomux_v3_setup_pad
 .text.imx_iomux_v3_setup_multiple_pads
                0x86801688       0x2c arch/arm/imx-common/built-in.o
                0x86801688                imx_iomux_v3_setup_multiple_pads
 .text.get_imx_type
                0x868016b4       0x20 arch/arm/imx-common/built-in.o
                0x868016b4                get_imx_type
 .text.print_cpuinfo
                0x868016d4      0x1dc arch/arm/imx-common/built-in.o
                0x868016d4                print_cpuinfo
 .text.cpu_eth_init
                0x868018b0        0x4 arch/arm/imx-common/built-in.o
                0x868018b0                cpu_eth_init
 .text.cpu_mmc_init
                0x868018b4        0x4 arch/arm/imx-common/built-in.o
                0x868018b4                cpu_mmc_init
 .text.get_ahb_clk
                0x868018b8       0x24 arch/arm/imx-common/built-in.o
                0x868018b8                get_ahb_clk
 .text.arch_preboot_os
                0x868018dc        0x4 arch/arm/imx-common/built-in.o
                0x868018dc                arch_preboot_os
 .text.get_clocks
                0x868018e0       0x1c arch/arm/imx-common/built-in.o
                0x868018e0                get_clocks
 .text.mxs_wait_mask_set
                0x868018fc       0x40 arch/arm/imx-common/built-in.o
                0x868018fc                mxs_wait_mask_set
 .text.mxs_wait_mask_clr
                0x8680193c       0x3c arch/arm/imx-common/built-in.o
                0x8680193c                mxs_wait_mask_clr
 .text.mxs_reset_block
                0x86801978       0x90 arch/arm/imx-common/built-in.o
                0x86801978                mxs_reset_block
 .text.timer_init
                0x86801a08       0x3c arch/arm/imx-common/built-in.o
                0x86801a08                timer_init
 .text.get_ticks
                0x86801a44       0x18 arch/arm/imx-common/built-in.o
                0x86801a44                get_ticks
 .text.get_timer_masked
                0x86801a5c       0x58 arch/arm/imx-common/built-in.o
                0x86801a5c                get_timer_masked
 .text.get_timer
                0x86801ab4       0x14 arch/arm/imx-common/built-in.o
                0x86801ab4                get_timer
 .text.__udelay
                0x86801ac8       0x80 arch/arm/imx-common/built-in.o
                0x86801ac8                __udelay
 .text.get_tbclk
                0x86801b48        0x8 arch/arm/imx-common/built-in.o
                0x86801b48                get_tbclk
 .text.create_usage
                0x86801b50       0xa0 arch/arm/imx-common/built-in.o
 .text.do_boot_mode
                0x86801bf0       0xcc arch/arm/imx-common/built-in.o
 .text.add_board_boot_modes
                0x86801cbc       0x60 arch/arm/imx-common/built-in.o
                0x86801cbc                add_board_boot_modes
 .text          0x86801d1c       0xa8 arch/arm/lib/built-in.o
                0x86801d1c                _main
 .text.relocate_vectors
                0x86801dc4       0x70 arch/arm/lib/built-in.o
                0x86801dc4                relocate_vectors
                0x86801dd0                relocate_code
 .text.arch_fixup_fdt
                0x86801e34       0x38 arch/arm/lib/built-in.o
                0x86801e34                arch_fixup_fdt
 .text.boot_jump_linux
                0x86801e6c       0xc4 arch/arm/lib/built-in.o
 .text.arch_lmb_reserve
                0x86801f30       0x24 arch/arm/lib/built-in.o
                0x86801f30                arch_lmb_reserve
 .text.setup_board_tags
                0x86801f54        0x4 arch/arm/lib/built-in.o
                0x86801f54                setup_board_tags
 .text.boot_prep_linux
                0x86801f58      0x194 arch/arm/lib/built-in.o
 .text.do_bootm_linux
                0x868020ec       0x64 arch/arm/lib/built-in.o
                0x868020ec                do_bootm_linux
 .text.bootz_setup
                0x86802150       0x58 arch/arm/lib/built-in.o
                0x86802150                bootz_setup
 .text.boot_prep_vxworks
                0x868021a8       0x50 arch/arm/lib/built-in.o
                0x868021a8                boot_prep_vxworks
 .text.boot_jump_vxworks
                0x868021f8        0xc arch/arm/lib/built-in.o
                0x868021f8                boot_jump_vxworks
 .text.arch_reserve_stacks
                0x86802204       0x1c arch/arm/lib/built-in.o
                0x86802204                arch_reserve_stacks
 .text.interrupt_init
                0x86802220       0x1c arch/arm/lib/built-in.o
                0x86802220                interrupt_init
 .text.enable_interrupts
                0x8680223c        0x4 arch/arm/lib/built-in.o
                0x8680223c                enable_interrupts
 .text.disable_interrupts
                0x86802240        0x8 arch/arm/lib/built-in.o
                0x86802240                disable_interrupts
 .text.bad_mode
                0x86802248       0x10 arch/arm/lib/built-in.o
                0x86802248                bad_mode
 .text.show_regs
                0x86802258      0x174 arch/arm/lib/built-in.o
                0x86802258                show_regs
 .text.do_undefined_instruction
                0x868023cc       0x20 arch/arm/lib/built-in.o
                0x868023cc                do_undefined_instruction
 .text.do_software_interrupt
                0x868023ec       0x20 arch/arm/lib/built-in.o
                0x868023ec                do_software_interrupt
 .text.do_prefetch_abort
                0x8680240c       0x20 arch/arm/lib/built-in.o
                0x8680240c                do_prefetch_abort
 .text.do_data_abort
                0x8680242c       0x20 arch/arm/lib/built-in.o
                0x8680242c                do_data_abort
 .text.do_not_used
                0x8680244c       0x20 arch/arm/lib/built-in.o
                0x8680244c                do_not_used
 .text.do_fiq   0x8680246c       0x20 arch/arm/lib/built-in.o
                0x8680246c                do_fiq
 .text.do_irq   0x8680248c       0x20 arch/arm/lib/built-in.o
                0x8680248c                do_irq
 .text.do_reset
                0x868024ac       0x30 arch/arm/lib/built-in.o
                0x868024ac                do_reset
 .text.cp_delay
                0x868024dc       0x30 arch/arm/lib/built-in.o
 .text.cache_disable
                0x8680250c       0x50 arch/arm/lib/built-in.o
 .text.arm_init_domains
                0x8680255c        0x4 arch/arm/lib/built-in.o
                0x8680255c                arm_init_domains
 .text.set_section_dcache
                0x86802560       0x14 arch/arm/lib/built-in.o
                0x86802560                set_section_dcache
 .text.mmu_set_region_dcache_behaviour
                0x86802574       0x50 arch/arm/lib/built-in.o
                0x86802574                mmu_set_region_dcache_behaviour
 .text.dram_bank_mmu_setup
                0x868025c4       0x44 arch/arm/lib/built-in.o
                0x868025c4                dram_bank_mmu_setup
 .text.icache_enable
                0x86802608       0x18 arch/arm/lib/built-in.o
                0x86802608                icache_enable
 .text.icache_disable
                0x86802620        0x8 arch/arm/lib/built-in.o
                0x86802620                icache_disable
 .text.icache_status
                0x86802628        0xc arch/arm/lib/built-in.o
                0x86802628                icache_status
 .text.dcache_enable
                0x86802634       0x6c arch/arm/lib/built-in.o
                0x86802634                dcache_enable
 .text.dcache_disable
                0x868026a0        0x8 arch/arm/lib/built-in.o
                0x868026a0                dcache_disable
 .text.dcache_status
                0x868026a8        0xc arch/arm/lib/built-in.o
                0x868026a8                dcache_status
 .text.dram_init
                0x868026b4       0x10 board/freescale/mx6g2c/built-in.o
                0x868026b4                dram_init
 .text.board_mmc_getcd
                0x868026c4       0x38 board/freescale/mx6g2c/built-in.o
                0x868026c4                board_mmc_getcd
 .text.board_mmc_init
                0x868026fc       0x5c board/freescale/mx6g2c/built-in.o
                0x868026fc                board_mmc_init
 .text.board_video_skip
                0x86802758      0x148 board/freescale/mx6g2c/built-in.o
                0x86802758                board_video_skip
 .text.board_eth_init
                0x868028a0       0x68 board/freescale/mx6g2c/built-in.o
                0x868028a0                board_eth_init
 .text.board_phy_config
                0x86802908       0x88 board/freescale/mx6g2c/built-in.o
                0x86802908                board_phy_config
 .text.board_usb_phy_mode
                0x86802990       0x14 board/freescale/mx6g2c/built-in.o
                0x86802990                board_usb_phy_mode
 .text.board_ehci_hcd_init
                0x868029a4       0x28 board/freescale/mx6g2c/built-in.o
                0x868029a4                board_ehci_hcd_init
 .text.board_early_init_f
                0x868029cc       0x7c board/freescale/mx6g2c/built-in.o
                0x868029cc                board_early_init_f
 .text.hw_watchdog_reset
                0x86802a48       0x30 board/freescale/mx6g2c/built-in.o
                0x86802a48                hw_watchdog_reset
 .text.wdt_init
                0x86802a78       0x28 board/freescale/mx6g2c/built-in.o
                0x86802a78                wdt_init
 .text.board_init
                0x86802aa0       0xd4 board/freescale/mx6g2c/built-in.o
                0x86802aa0                board_init
 .text.board_late_init
                0x86802b74       0x18 board/freescale/mx6g2c/built-in.o
                0x86802b74                board_late_init
 .text.get_board_rev
                0x86802b8c        0x4 board/freescale/mx6g2c/built-in.o
                0x86802b8c                get_board_rev
 .text.checkboard
                0x86802b90       0x18 board/freescale/mx6g2c/built-in.o
                0x86802b90                checkboard
 .text.do_enable_parallel_lcd
                0x86802ba8       0x20 board/freescale/mx6g2c/built-in.o
                0x86802ba8                do_enable_parallel_lcd
 .text.get_lcd_panels
                0x86802bc8        0xc board/freescale/mx6g2c/built-in.o
                0x86802bc8                get_lcd_panels
 .text.splash_screen_prepare
                0x86802bd4       0x28 board/freescale/mx6g2c/built-in.o
                0x86802bd4                splash_screen_prepare
 .text.override_lcd_settings
                0x86802bfc      0x140 board/freescale/mx6g2c/built-in.o
                0x86802bfc                override_lcd_settings
 .text.show_boot_progress
                0x86802d3c        0x4 common/built-in.o
                0x86802d3c                show_boot_progress
 .text.main_loop
                0x86802d40       0x20 common/built-in.o
                0x86802d40                main_loop
 .text.dummy    0x86802d60        0x4 common/built-in.o
 .text.get_version
                0x86802d64        0x8 common/built-in.o
                0x86802d64                get_version
 .text.jumptable_init
                0x86802d6c      0x1c0 common/built-in.o
                0x86802d6c                jumptable_init
 .text.hash_command
                0x86802f2c       0xb4 common/built-in.o
                0x86802f2c                hash_command
 .text.b_reset  0x86802fe0       0x1c common/built-in.o
 .text.static_get
                0x86802ffc       0x1c common/built-in.o
 .text.static_peek
                0x86803018        0xc common/built-in.o
 .text.file_peek
                0x86803024        0xc common/built-in.o
 .text.mapset   0x86803030       0x20 common/built-in.o
 .text.syntax_err
                0x86803050        0xc common/built-in.o
 .text.free_pipe_list
                0x8680305c       0xf0 common/built-in.o
 .text.xmalloc  0x8680314c       0x20 common/built-in.o
 .text.new_pipe
                0x8680316c       0x28 common/built-in.o
 .text.xrealloc
                0x86803194       0x20 common/built-in.o
 .text.done_command
                0x868031b4       0x88 common/built-in.o
 .text.done_pipe
                0x8680323c       0x48 common/built-in.o
 .text.done_word
                0x86803284      0x2e4 common/built-in.o
 .text.do_showvar
                0x86803568       0xfc common/built-in.o
 .text.is_assignment
                0x86803664       0x5c common/built-in.o
 .text.file_get
                0x868036c0      0x1ec common/built-in.o
 .text.b_addchr
                0x868038ac       0x78 common/built-in.o
 .text.b_addqchr
                0x86803924       0x50 common/built-in.o
 .text.get_local_var
                0x86803974       0xa0 common/built-in.o
                0x86803974                get_local_var
 .text.set_local_var
                0x86803a14      0x1bc common/built-in.o
                0x86803a14                set_local_var
 .text.insert_var_value_sub
                0x86803bd0      0x2c0 common/built-in.o
 .text.parse_string_outer
                0x86803e90       0xe4 common/built-in.o
                0x86803e90                parse_string_outer
 .text.run_list_real
                0x86803f74      0x7ec common/built-in.o
 .text.parse_stream_outer
                0x86804760      0x6cc common/built-in.o
 .text.parse_file_outer
                0x86804e2c       0x44 common/built-in.o
                0x86804e2c                parse_file_outer
 .text.u_boot_hush_start
                0x86804e70       0x54 common/built-in.o
                0x86804e70                u_boot_hush_start
 .text.bootdelay_process
                0x86804ec4       0xd0 common/built-in.o
                0x86804ec4                bootdelay_process
 .text.autoboot_command
                0x86804f94       0xd0 common/built-in.o
                0x86804f94                autoboot_command
 .text.display_text_info
                0x86805064        0x8 common/built-in.o
 .text.setup_mon_len
                0x8680506c       0x20 common/built-in.o
 .text.setup_fdt
                0x8680508c        0x8 common/built-in.o
 .text.reserve_round_4k
                0x86805094       0x18 common/built-in.o
 .text.reserve_mmu
                0x868050ac       0x38 common/built-in.o
 .text.reserve_trace
                0x868050e4        0x8 common/built-in.o
 .text.reserve_uboot
                0x868050ec       0x30 common/built-in.o
 .text.reserve_malloc
                0x8680511c       0x14 common/built-in.o
 .text.setup_machine
                0x86805130        0x8 common/built-in.o
 .text.reserve_global_data
                0x86805138       0x1c common/built-in.o
 .text.reserve_fdt
                0x86805154       0x4c common/built-in.o
 .text.display_new_sp
                0x868051a0        0x8 common/built-in.o
 .text.initf_malloc
                0x868051a8       0x1c common/built-in.o
 .text.reserve_arch
                0x868051c4        0x8 common/built-in.o
                0x868051c4                reserve_arch
 .text.setup_reloc
                0x868051cc       0x2c common/built-in.o
 .text.reloc_fdt
                0x868051f8       0x38 common/built-in.o
 .text.announce_dram_init
                0x86805230       0x18 common/built-in.o
 .text.init_func_i2c
                0x86805248       0x28 common/built-in.o
 .text.init_baud_rate
                0x86805270       0x2c common/built-in.o
 .text.initf_dm
                0x8680529c        0x8 common/built-in.o
 .text.mark_bootstage
                0x868052a4       0x14 common/built-in.o
 .text.reserve_board
                0x868052b8       0x40 common/built-in.o
 .text.coloured_LED_init
                0x868052f8        0x4 common/built-in.o
                0x868052f8                coloured_LED_init
 .text.red_led_on
                0x868052fc        0x4 common/built-in.o
                0x868052fc                red_led_on
 .text.board_add_ram_info
                0x86805300        0x4 common/built-in.o
                0x86805300                board_add_ram_info
 .text.show_dram_config
                0x86805304       0x38 common/built-in.o
 .text.dram_init_banksize
                0x8680533c       0x20 common/built-in.o
                0x8680533c                dram_init_banksize
 .text.setup_dram_config
                0x8680535c       0x10 common/built-in.o
 .text.board_get_usable_ram_top
                0x8680536c       0x14 common/built-in.o
                0x8680536c                board_get_usable_ram_top
 .text.setup_dest_addr
                0x86805380       0x3c common/built-in.o
 .text.reserve_stacks
                0x868053bc       0x1c common/built-in.o
 .text.board_init_f
                0x868053d8       0x28 common/built-in.o
                0x868053d8                board_init_f
 .text.bootstage_relocate
                0x86805400        0x8 common/built-in.o
 .text.initr_trace
                0x86805408        0x8 common/built-in.o
 .text.initr_reloc_global_data
                0x86805410       0x28 common/built-in.o
 .text.initr_barrier
                0x86805438        0x8 common/built-in.o
 .text.power_init_board
                0x86805440        0x8 common/built-in.o
                0x86805440                power_init_board
 .text.initr_announce
                0x86805448        0x8 common/built-in.o
 .text.run_main_loop
                0x86805450        0xc common/built-in.o
 .text.initr_net
                0x8680545c       0x20 common/built-in.o
 .text.initr_ethaddr
                0x8680547c       0x20 common/built-in.o
 .text.initr_enable_interrupts
                0x8680549c       0x10 common/built-in.o
 .text.initr_jumptable
                0x868054ac       0x10 common/built-in.o
 .text.initr_env
                0x868054bc       0x30 common/built-in.o
 .text.initr_mmc
                0x868054ec       0x20 common/built-in.o
 .text.initr_nand
                0x8680550c       0x1c common/built-in.o
 .text.initr_serial
                0x86805528       0x10 common/built-in.o
 .text.initr_dm
                0x86805538       0x14 common/built-in.o
 .text.initr_malloc
                0x8680554c       0x1c common/built-in.o
 .text.initr_caches
                0x86805568       0x10 common/built-in.o
 .text.initr_reloc
                0x86805578       0x24 common/built-in.o
 .text.cpu_secondary_init_r
                0x8680559c        0x4 common/built-in.o
                0x8680559c                cpu_secondary_init_r
 .text.initr_secondary_cpu
                0x868055a0       0x10 common/built-in.o
 .text.board_init_r
                0x868055b0       0x14 common/built-in.o
                0x868055b0                board_init_r
 .text.show_board_info
                0x868055c4        0x4 common/built-in.o
                0x868055c4                show_board_info
 .text.do_go_exec
                0x868055c8       0x10 common/built-in.o
                0x868055c8                do_go_exec
 .text.do_go    0x868055d8       0x6c common/built-in.o
 .text.do_bootm
                0x86805644      0x110 common/built-in.o
                0x86805644                do_bootm
 .text.do_bootd
                0x86805754       0x20 common/built-in.o
                0x86805754                do_bootd
 .text.image_info
                0x86805774       0xcc common/built-in.o
 .text.do_iminfo
                0x86805840       0x5c common/built-in.o
 .text.bootm_maybe_autostart
                0x8680589c       0x78 common/built-in.o
                0x8680589c                bootm_maybe_autostart
 .text.do_bootz
                0x86805914       0xfc common/built-in.o
                0x86805914                do_bootz
 .text.bootm_find_ramdisk_fdt
                0x86805a10       0xa8 common/built-in.o
                0x86805a10                bootm_find_ramdisk_fdt
 .text.bootm_decomp_image
                0x86805ab8      0x180 common/built-in.o
                0x86805ab8                bootm_decomp_image
 .text.bootm_disable_interrupts
                0x86805c38       0x18 common/built-in.o
                0x86805c38                bootm_disable_interrupts
 .text.do_bootm_states
                0x86805c50      0x748 common/built-in.o
                0x86805c50                do_bootm_states
 .text.do_bootm_standalone
                0x86806398       0x64 common/built-in.o
 .text.do_bootvx_fdt
                0x868063fc      0x10c common/built-in.o
                0x868063fc                do_bootvx_fdt
 .text.do_bootm_vxworks
                0x86806508       0x24 common/built-in.o
 .text.boot_selected_os
                0x8680652c       0x58 common/built-in.o
                0x8680652c                boot_selected_os
 .text.bootm_os_get_boot_func
                0x86806584       0x10 common/built-in.o
                0x86806584                bootm_os_get_boot_func
 .text.do_help  0x86806594       0x44 common/built-in.o
 .text.do_version
                0x868065d8       0x38 common/built-in.o
 .text.env_attr_walk
                0x86806610      0x114 common/built-in.o
                0x86806610                env_attr_walk
 .text.env_attr_lookup
                0x86806724      0x18c common/built-in.o
                0x86806724                env_attr_lookup
 .text.clear_callback
                0x868068b0       0x10 common/built-in.o
 .text.find_env_callback
                0x868068c0       0x68 common/built-in.o
 .text.on_callbacks
                0x86806928       0x48 common/built-in.o
 .text.set_callback
                0x86806970       0x9c common/built-in.o
 .text.env_callback_init
                0x86806a0c       0xc4 common/built-in.o
                0x86806a0c                env_callback_init
 .text.skip_num
                0x86806ad0       0x70 common/built-in.o
 .text.clear_flags
                0x86806b40       0x10 common/built-in.o
 .text.on_flags
                0x86806b50       0x48 common/built-in.o
 .text.env_flags_parse_vartype
                0x86806b98       0x50 common/built-in.o
                0x86806b98                env_flags_parse_vartype
 .text.env_flags_parse_varaccess
                0x86806be8       0x58 common/built-in.o
                0x86806be8                env_flags_parse_varaccess
 .text.set_flags
                0x86806c40       0xb4 common/built-in.o
 .text.env_flags_init
                0x86806cf4       0xd8 common/built-in.o
                0x86806cf4                env_flags_init
 .text.env_flags_validate
                0x86806dcc      0x328 common/built-in.o
                0x86806dcc                env_flags_validate
 .text.env_init
                0x868070f4       0x1c common/built-in.o
                0x868070f4                env_init
 .text.saveenv  0x86807110      0x134 common/built-in.o
                0x86807110                saveenv
 .text.env_relocate_spec
                0x86807244       0xec common/built-in.o
                0x86807244                env_relocate_spec
 .text.source   0x86807330       0xd8 common/built-in.o
                0x86807330                source
 .text.do_source
                0x86807408       0x48 common/built-in.o
 .text.print_num
                0x86807450       0x14 common/built-in.o
 .text.do_bdinfo
                0x86807464      0x190 common/built-in.o
 .text.do_bmp   0x868075f4       0x54 common/built-in.o
 .text.do_bmp_info
                0x86807648       0xfc common/built-in.o
 .text.bmp_display
                0x86807744       0x38 common/built-in.o
                0x86807744                bmp_display
 .text.do_bmp_display
                0x8680777c       0xbc common/built-in.o
 .text.parse_argv
                0x86807838       0x64 common/built-in.o
 .text.do_icache
                0x8680789c       0x88 common/built-in.o
 .text.do_dcache
                0x86807924       0x88 common/built-in.o
 .text.do_coninfo
                0x868079ac       0xc0 common/built-in.o
 .text.do_echo  0x86807a6c       0xb0 common/built-in.o
 .text.do_exit  0x86807b1c       0x3c common/built-in.o
 .text.do_fat_size
                0x86807b58       0x18 common/built-in.o
                0x86807b58                do_fat_size
 .text.do_fat_fsload
                0x86807b70       0x18 common/built-in.o
                0x86807b70                do_fat_fsload
 .text.do_fat_ls
                0x86807b88       0x18 common/built-in.o
 .text.do_fat_fsinfo
                0x86807ba0       0x90 common/built-in.o
 .text.fdt_valid
                0x86807c30       0xbc common/built-in.o
 .text.is_printable_string
                0x86807cec       0x98 common/built-in.o
 .text.print_data
                0x86807d84      0x174 common/built-in.o
 .text.set_working_fdt_addr
                0x86807ef8       0x1c common/built-in.o
                0x86807ef8                set_working_fdt_addr
 .text.do_fdt   0x86807f14      0xe94 common/built-in.o
 .text.fdt_find_and_setprop
                0x86808da8       0x70 common/built-in.o
                0x86808da8                fdt_find_and_setprop
 .text.fdt_find_or_add_subnode
                0x86808e18       0x68 common/built-in.o
                0x86808e18                fdt_find_or_add_subnode
 .text.fdt_initrd
                0x86808e80      0x1c8 common/built-in.o
                0x86808e80                fdt_initrd
 .text.fdt_chosen
                0x86809048       0xa8 common/built-in.o
                0x86809048                fdt_chosen
 .text.do_fixup_by_path
                0x868090f0       0x54 common/built-in.o
                0x868090f0                do_fixup_by_path
 .text.fdt_fixup_memory_banks
                0x86809144      0x1a0 common/built-in.o
                0x86809144                fdt_fixup_memory_banks
 .text.fdt_fixup_memory
                0x868092e4       0x20 common/built-in.o
                0x868092e4                fdt_fixup_memory
 .text.fdt_fixup_ethernet
                0x86809304      0x15c common/built-in.o
                0x86809304                fdt_fixup_ethernet
 .text.fdt_shrink_to_minimum
                0x86809460       0xcc common/built-in.o
                0x86809460                fdt_shrink_to_minimum
 .text.do_flinfo
                0x8680952c        0x8 common/built-in.o
 .text.do_flerase
                0x86809534        0x8 common/built-in.o
 .text.do_protect
                0x8680953c       0x10 common/built-in.o
 .text.strtou32
                0x8680954c       0x44 common/built-in.o
 .text.do_fuse  0x86809590      0x360 common/built-in.o
 .text.do_i2c   0x868098f0       0x64 common/built-in.o
 .text.do_i2c_reset
                0x86809954       0x2c common/built-in.o
 .text.do_i2c_probe
                0x86809980       0x9c common/built-in.o
 .text.do_i2c_bus_num
                0x86809a1c       0xb4 common/built-in.o
 .text.do_i2c_bus_speed
                0x86809ad0       0x74 common/built-in.o
 .text.do_i2c_show_bus
                0x86809b44       0xd0 common/built-in.o
 .text.get_alen.constprop.5
                0x86809c14       0x3c common/built-in.o
 .text.do_i2c_crc
                0x86809c50      0x120 common/built-in.o
 .text.do_i2c_read
                0x86809d70       0xbc common/built-in.o
 .text.do_i2c_md
                0x86809e2c      0x1e8 common/built-in.o
 .text.do_i2c_mw
                0x8680a014       0xfc common/built-in.o
 .text.do_i2c_write
                0x8680a110      0x14c common/built-in.o
 .text.mod_i2c_mem.isra.4
                0x8680a25c      0x204 common/built-in.o
 .text.do_i2c_nm
                0x8680a460        0x8 common/built-in.o
 .text.do_i2c_mm
                0x8680a468        0x8 common/built-in.o
 .text.do_i2c_loop
                0x8680a470       0xe4 common/built-in.o
 .text.i2c_init_board
                0x8680a554        0x4 common/built-in.o
                0x8680a554                i2c_init_board
 .text.evalexp  0x8680a558       0x6c common/built-in.o
 .text.evalstr  0x8680a5c4       0x6c common/built-in.o
 .text.binary_test
                0x8680a630      0x1b8 common/built-in.o
 .text.do_itest
                0x8680a7e8       0x88 common/built-in.o
 .text.cmd_lcd_info
                0x8680a870       0x7c common/built-in.o
                0x8680a870                cmd_lcd_info
 .text.cmd_lcd_select
                0x8680a8ec       0x38 common/built-in.o
                0x8680a8ec                cmd_lcd_select
 .text.do_lcd_cmd
                0x8680a924      0x114 common/built-in.o
                0x8680a924                do_lcd_cmd
 .text.bin_data_init
                0x8680aa38       0x2c common/built-in.o
 .text.k_data_save
                0x8680aa64       0x4c common/built-in.o
 .text.k_data_restore
                0x8680aab0       0x4c common/built-in.o
 .text.getcxmodem
                0x8680aafc       0x20 common/built-in.o
 .text.load_serial_ymodem
                0x8680ab1c       0xcc common/built-in.o
 .text.bin_data_char
                0x8680abe8       0x2c common/built-in.o
 .text.chk1.constprop.1
                0x8680ac14       0x2c common/built-in.o
 .text.s1_sendpacket.constprop.2
                0x8680ac40       0x50 common/built-in.o
 .text.load_serial
                0x8680ac90      0x1e0 common/built-in.o
 .text.do_load_serial
                0x8680ae70       0xdc common/built-in.o
 .text.do_load_serial_bin
                0x8680af4c      0x7a8 common/built-in.o
 .text.do_mem_mw
                0x8680b6f4       0xc0 common/built-in.o
 .text.do_mem_loop
                0x8680b7b4       0xec common/built-in.o
 .text.do_mem_md
                0x8680b8a0       0xec common/built-in.o
 .text.do_mem_cmp
                0x8680b98c      0x164 common/built-in.o
 .text.do_mem_base
                0x8680baf0       0x40 common/built-in.o
 .text.do_mem_cp
                0x8680bb30       0xd8 common/built-in.o
 .text.do_mem_crc
                0x8680bc08       0x48 common/built-in.o
 .text.do_mem_mtest
                0x8680bc50      0x200 common/built-in.o
 .text.mod_mem.isra.2
                0x8680be50      0x164 common/built-in.o
 .text.do_mem_mm
                0x8680bfb4        0x8 common/built-in.o
 .text.do_mem_nm
                0x8680bfbc        0x8 common/built-in.o
 .text.miiphy_get_dev_by_name
                0x8680bfc4       0x60 common/built-in.o
                0x8680bfc4                miiphy_get_dev_by_name
 .text.miiphy_init
                0x8680c024       0x24 common/built-in.o
                0x8680c024                miiphy_init
 .text.mdio_alloc
                0x8680c048       0x30 common/built-in.o
                0x8680c048                mdio_alloc
 .text.mdio_register
                0x8680c078       0x9c common/built-in.o
                0x8680c078                mdio_register
 .text.mdio_list_devices
                0x8680c114       0x98 common/built-in.o
                0x8680c114                mdio_list_devices
 .text.miiphy_set_current_dev
                0x8680c1ac       0x40 common/built-in.o
                0x8680c1ac                miiphy_set_current_dev
 .text.miiphy_get_active_dev
                0x8680c1ec       0x54 common/built-in.o
 .text.mdio_get_current_dev
                0x8680c240       0x10 common/built-in.o
                0x8680c240                mdio_get_current_dev
 .text.mdio_phydev_for_ethname
                0x8680c250       0x88 common/built-in.o
                0x8680c250                mdio_phydev_for_ethname
 .text.miiphy_get_current_dev
                0x8680c2d8       0x18 common/built-in.o
                0x8680c2d8                miiphy_get_current_dev
 .text.miiphy_read
                0x8680c2f0       0x4c common/built-in.o
                0x8680c2f0                miiphy_read
 .text.miiphy_write
                0x8680c33c       0x40 common/built-in.o
                0x8680c33c                miiphy_write
 .text.miiphy_listdev
                0x8680c37c       0x74 common/built-in.o
                0x8680c37c                miiphy_listdev
 .text.miiphy_info
                0x8680c3f0       0x88 common/built-in.o
                0x8680c3f0                miiphy_info
 .text.miiphy_speed
                0x8680c478       0x94 common/built-in.o
                0x8680c478                miiphy_speed
 .text.miiphy_duplex
                0x8680c50c       0x94 common/built-in.o
                0x8680c50c                miiphy_duplex
 .text.miiphy_is_1000base_x
                0x8680c5a0        0x8 common/built-in.o
                0x8680c5a0                miiphy_is_1000base_x
 .text.extract_range
                0x8680c5a8       0xe4 common/built-in.o
 .text.do_mii   0x8680c68c      0x7b8 common/built-in.o
 .text.do_mdio  0x8680ce44      0x4dc common/built-in.o
 .text.do_sleep
                0x8680d320       0x70 common/built-in.o
 .text.do_mmcops
                0x8680d390       0xb4 common/built-in.o
 .text.init_mmc_device
                0x8680d444       0x54 common/built-in.o
 .text.do_mmc_rescan
                0x8680d498       0x24 common/built-in.o
 .text.do_mmc_hwpartition
                0x8680d4bc      0x518 common/built-in.o
 .text.do_mmc_list
                0x8680d9d4       0x14 common/built-in.o
 .text.do_mmc_dev
                0x8680d9e8      0x134 common/built-in.o
 .text.do_mmc_part
                0x8680db1c       0x5c common/built-in.o
 .text.do_mmc_erase
                0x8680db78       0xe8 common/built-in.o
 .text.do_mmc_write
                0x8680dc60      0x100 common/built-in.o
 .text.do_mmc_read
                0x8680dd60       0xec common/built-in.o
 .text.do_mmcinfo
                0x8680de4c      0x370 common/built-in.o
 .text.do_mmc_setdsr
                0x8680e1bc       0xb0 common/built-in.o
 .text.part_delall
                0x8680e26c       0x44 common/built-in.o
 .text.get_mtd_info
                0x8680e2b0       0x80 common/built-in.o
 .text.memsize_parse
                0x8680e330       0x80 common/built-in.o
 .text.part_validate
                0x8680e3b0      0x384 common/built-in.o
 .text.mtd_part_info
                0x8680e734       0x98 common/built-in.o
 .text.memsize_format
                0x8680e7cc       0x90 common/built-in.o
 .text.index_partitions
                0x8680e85c       0xac common/built-in.o
 .text.current_save
                0x8680e908       0xbc common/built-in.o
 .text.part_sort_add
                0x8680e9c4      0x11c common/built-in.o
 .text.device_del
                0x8680eae0       0x7c common/built-in.o
 .text.generate_mtdparts_save.constprop.7
                0x8680eb5c      0x300 common/built-in.o
 .text.device_delall.constprop.9
                0x8680ee5c       0x64 common/built-in.o
 .text.mtd_devices_init
                0x8680eec0       0x2c common/built-in.o
 .text.device_find
                0x8680eeec       0x4c common/built-in.o
                0x8680eeec                device_find
 .text.device_parse
                0x8680ef38      0x554 common/built-in.o
 .text.mtd_id_parse
                0x8680f48c      0x120 common/built-in.o
                0x8680f48c                mtd_id_parse
 .text.find_dev_and_part
                0x8680f5ac      0x1b4 common/built-in.o
                0x8680f5ac                find_dev_and_part
 .text.mtdparts_init
                0x8680f760      0x660 common/built-in.o
                0x8680f760                mtdparts_init
 .text.do_chpart
                0x8680fdc0       0xd4 common/built-in.o
 .text.do_mtdparts
                0x8680fe94      0x5bc common/built-in.o
 .text.set_dev  0x86810450       0x70 common/built-in.o
 .text.nand_print_and_set_info
                0x868104c0       0xcc common/built-in.o
 .text.arg_off  0x8681058c      0x108 common/built-in.o
 .text.arg_off_size
                0x86810694      0x14c common/built-in.o
 .text.do_nand  0x868107e0      0xd04 common/built-in.o
 .text.nand_load_image
                0x868114e4      0x1b8 common/built-in.o
 .text.do_nandboot
                0x8681169c      0x254 common/built-in.o
 .text.netboot_common
                0x868118f0      0x294 common/built-in.o
 .text.do_bootp
                0x86811b84        0xc common/built-in.o
 .text.do_dhcp  0x86811b90        0xc common/built-in.o
 .text.do_nfs   0x86811b9c        0xc common/built-in.o
 .text.do_tftpb
                0x86811ba8       0x40 common/built-in.o
                0x86811ba8                do_tftpb
 .text.do_ping  0x86811be8       0x78 common/built-in.o
 .text.do_false
                0x86811c60        0x8 common/built-in.o
 .text.do_true  0x86811c68        0x8 common/built-in.o
 .text.do_test  0x86811c70      0x33c common/built-in.o
 .text.ubi_find_volume
                0x86811fac       0x70 common/built-in.o
 .text.ubi_volume_continue_write
                0x8681201c       0xa0 common/built-in.o
 .text.ubi_volume_begin_write
                0x868120bc       0xa4 common/built-in.o
                0x868120bc                ubi_volume_begin_write
 .text.ubi_volume_write
                0x86812160        0x8 common/built-in.o
                0x86812160                ubi_volume_write
 .text.ubi_volume_read
                0x86812168      0x1d4 common/built-in.o
                0x86812168                ubi_volume_read
 .text.ubi_part
                0x8681233c      0x250 common/built-in.o
                0x8681233c                ubi_part
 .text.do_ubi   0x8681258c      0x858 common/built-in.o
 .text.do_ubifs_mount
                0x86812de4       0x64 common/built-in.o
 .text.do_ubifs_ls
                0x86812e48       0x64 common/built-in.o
 .text.do_ubifs_load
                0x86812eac       0xc8 common/built-in.o
 .text.ubifs_is_mounted
                0x86812f74       0x10 common/built-in.o
                0x86812f74                ubifs_is_mounted
 .text.cmd_ubifs_umount
                0x86812f84       0x5c common/built-in.o
                0x86812f84                cmd_ubifs_umount
 .text.do_ubifs_umount
                0x86812fe0       0x48 common/built-in.o
 .text.usb_get_class_desc
                0x86813028       0xbc common/built-in.o
 .text.usb_display_class_sub
                0x868130e4      0x170 common/built-in.o
 .text.usb_find_device
                0x86813254       0x3c common/built-in.o
 .text.usb_show_tree_graph
                0x86813290      0x21c common/built-in.o
 .text.usb_display_string
                0x868134ac       0x44 common/built-in.o
 .text.usb_display_config
                0x868134f0      0x20c common/built-in.o
 .text.do_usbboot
                0x868136fc        0xc common/built-in.o
 .text.do_usb_start
                0x86813708       0x44 common/built-in.o
 .text.usb_display_desc.part.3
                0x8681374c      0x12c common/built-in.o
 .text.do_usb   0x86813878      0x78c common/built-in.o
 .text.usb_set_maxpacket_ep
                0x86814004       0x70 common/built-in.o
 .text.usb_stop
                0x86814074       0x80 common/built-in.o
                0x86814074                usb_stop
 .text.usb_disable_asynch
                0x868140f4       0x20 common/built-in.o
                0x868140f4                usb_disable_asynch
 .text.usb_control_msg
                0x86814114       0xc4 common/built-in.o
                0x86814114                usb_control_msg
 .text.usb_get_descriptor
                0x868141d8       0x58 common/built-in.o
 .text.usb_get_string
                0x86814230       0x70 common/built-in.o
 .text.usb_string_sub
                0x868142a0      0x108 common/built-in.o
 .text.usb_bulk_msg
                0x868143a8       0x78 common/built-in.o
                0x868143a8                usb_bulk_msg
 .text.usb_maxpacket
                0x86814420       0x1c common/built-in.o
                0x86814420                usb_maxpacket
 .text.usb_clear_halt
                0x8681443c       0x90 common/built-in.o
                0x8681443c                usb_clear_halt
 .text.usb_get_configuration_no
                0x868144cc       0xbc common/built-in.o
                0x868144cc                usb_get_configuration_no
 .text.usb_set_interface
                0x86814588       0xa8 common/built-in.o
                0x86814588                usb_set_interface
 .text.usb_string
                0x86814630      0x100 common/built-in.o
                0x86814630                usb_string
 .text.usb_get_dev_index
                0x86814730       0x24 common/built-in.o
                0x86814730                usb_get_dev_index
 .text.usb_alloc_new_device
                0x86814754       0x94 common/built-in.o
                0x86814754                usb_alloc_new_device
 .text.usb_free_device
                0x868147e8       0x48 common/built-in.o
                0x868147e8                usb_free_device
 .text.usb_alloc_device
                0x86814830        0x8 common/built-in.o
                0x86814830                usb_alloc_device
 .text.usb_new_device
                0x86814838      0x5d0 common/built-in.o
                0x86814838                usb_new_device
 .text.usb_init
                0x86814e08      0x154 common/built-in.o
                0x86814e08                usb_init
 .text.usb_set_port_feature
                0x86814f5c       0x4c common/built-in.o
 .text.usb_hub_power_on
                0x86814fa8       0x44 common/built-in.o
 .text.usb_get_port_status
                0x86814fec       0x4c common/built-in.o
 .text.usb_clear_port_feature
                0x86815038       0x4c common/built-in.o
 .text.usb_get_hub_descriptor
                0x86815084       0x4c common/built-in.o
 .text.usb_hub_reset_devices
                0x868150d0        0x4 common/built-in.o
                0x868150d0                usb_hub_reset_devices
 .text.usb_hub_reset
                0x868150d4       0x14 common/built-in.o
                0x868150d4                usb_hub_reset
 .text.hub_port_reset
                0x868150e8       0x98 common/built-in.o
                0x868150e8                hub_port_reset
 .text.usb_hub_port_connect_change
                0x86815180      0x120 common/built-in.o
                0x86815180                usb_hub_port_connect_change
 .text.usb_hub_configure
                0x868152a0      0x2d8 common/built-in.o
 .text.usb_hub_probe
                0x86815578       0x58 common/built-in.o
                0x86815578                usb_hub_probe
 .text.usb_stor_irq
                0x868155d0       0x1c common/built-in.o
 .text.usb_stor_BBB_reset
                0x868155ec       0xd0 common/built-in.o
 .text.usb_stor_CB_reset
                0x868156bc       0xd0 common/built-in.o
 .text.usb_stor_BBB_clear_endpt_stall.isra.2
                0x8681578c       0x40 common/built-in.o
 .text.usb_stor_BBB_transport
                0x868157cc      0x26c common/built-in.o
 .text.usb_stor_CB_comdat
                0x86815a38      0x218 common/built-in.o
 .text.usb_stor_CBI_get_status.isra.4
                0x86815c50       0xcc common/built-in.o
 .text.usb_stor_CB_transport
                0x86815d1c      0x228 common/built-in.o
 .text.usb_request_sense.constprop.10
                0x86815f44       0x70 common/built-in.o
 .text.usb_stor_write
                0x86815fb4      0x1cc common/built-in.o
                0x86815fb4                usb_stor_write
 .text.usb_stor_read
                0x86816180      0x1cc common/built-in.o
                0x86816180                usb_stor_read
 .text.usb_stor_get_dev
                0x8681634c       0x28 common/built-in.o
                0x8681634c                usb_stor_get_dev
 .text.usb_stor_info
                0x86816374       0x74 common/built-in.o
                0x86816374                usb_stor_info
 .text.usb_storage_probe
                0x868163e8      0x204 common/built-in.o
                0x868163e8                usb_storage_probe
 .text.usb_stor_get_info
                0x868165ec      0x320 common/built-in.o
                0x868165ec                usb_stor_get_info
 .text.usb_stor_scan
                0x8681690c      0x204 common/built-in.o
                0x8681690c                usb_stor_scan
 .text.do_imgextract
                0x86816b10      0x28c common/built-in.o
 .text.splash_get_pos
                0x86816d9c       0x84 common/built-in.o
                0x86816d9c                splash_get_pos
 .text.do_env_delete
                0x86816e20       0x9c common/built-in.o
 .text.do_env_exists
                0x86816ebc       0x6c common/built-in.o
 .text.do_env_save
                0x86816f28       0x2c common/built-in.o
 .text.do_env   0x86816f54       0x64 common/built-in.o
 .text.env_print
                0x86816fb8       0xc8 common/built-in.o
 .text.do_env_print
                0x86817080       0xc8 common/built-in.o
 .text.do_env_default
                0x86817148       0xa8 common/built-in.o
 .text._do_env_set.isra.0
                0x868171f0      0x1c4 common/built-in.o
 .text.do_env_set
                0x868173b4       0x1c common/built-in.o
 .text.get_env_id
                0x868173d0       0x10 common/built-in.o
                0x868173d0                get_env_id
 .text.setenv   0x868173e0       0x5c common/built-in.o
                0x868173e0                setenv
 .text.setenv_ulong
                0x8681743c       0x20 common/built-in.o
                0x8681743c                setenv_ulong
 .text.setenv_hex
                0x8681745c       0x34 common/built-in.o
                0x8681745c                setenv_hex
 .text.envmatch
                0x86817490       0x6c common/built-in.o
                0x86817490                envmatch
 .text.getenv_f
                0x868174fc       0xc8 common/built-in.o
                0x868174fc                getenv_f
 .text.getenv   0x868175c4       0x80 common/built-in.o
                0x868175c4                getenv
 .text.getenv_hex
                0x86817644       0x3c common/built-in.o
                0x86817644                getenv_hex
 .text.getenv_ulong
                0x86817680       0x30 common/built-in.o
                0x86817680                getenv_ulong
 .text.do_env_edit
                0x868176b0       0x7c common/built-in.o
 .text.env_get_char_spec
                0x8681772c        0xc common/built-in.o
                0x8681772c                env_get_char_spec
 .text.env_get_addr
                0x86817738       0x20 common/built-in.o
                0x86817738                env_get_addr
 .text.env_get_char_memory
                0x86817758       0x10 common/built-in.o
                0x86817758                env_get_char_memory
 .text.env_get_char
                0x86817768       0x30 common/built-in.o
                0x86817768                env_get_char
 .text.getenv_yesno
                0x86817798       0x40 common/built-in.o
                0x86817798                getenv_yesno
 .text.getenv_default
                0x868177d8       0x30 common/built-in.o
                0x868177d8                getenv_default
 .text.set_default_env
                0x86817808       0xc0 common/built-in.o
                0x86817808                set_default_env
 .text.set_default_vars
                0x868178c8       0x38 common/built-in.o
                0x868178c8                set_default_vars
 .text.env_import
                0x86817900       0xe0 common/built-in.o
                0x86817900                env_import
 .text.env_export
                0x868179e0       0xa4 common/built-in.o
                0x868179e0                env_export
 .text.env_relocate
                0x86817a84       0x2c common/built-in.o
                0x86817a84                env_relocate
 .text.env_complete
                0x86817ab0       0xdc common/built-in.o
                0x86817ab0                env_complete
 .text.console_setfile
                0x86817b8c       0xc0 common/built-in.o
 .text.serial_printf
                0x86817c4c       0x48 common/built-in.o
                0x86817c4c                serial_printf
 .text.puts     0x86817c94       0x34 common/built-in.o
                0x86817c94                puts
 .text.printf   0x86817cc8       0x54 common/built-in.o
                0x86817cc8                printf
 .text.putc     0x86817d1c       0x34 common/built-in.o
                0x86817d1c                putc
 .text.fgetc    0x86817d50       0x24 common/built-in.o
                0x86817d50                fgetc
 .text.getc     0x86817d74       0x24 common/built-in.o
                0x86817d74                getc
 .text.ftstc    0x86817d98       0x24 common/built-in.o
                0x86817d98                ftstc
 .text.tstc     0x86817dbc       0x24 common/built-in.o
                0x86817dbc                tstc
 .text.vprintf  0x86817de0       0x34 common/built-in.o
                0x86817de0                vprintf
 .text.ctrlc    0x86817e14       0x58 common/built-in.o
                0x86817e14                ctrlc
 .text.confirm_yesno
                0x86817e6c       0xd4 common/built-in.o
                0x86817e6c                confirm_yesno
 .text.had_ctrlc
                0x86817f40       0x10 common/built-in.o
                0x86817f40                had_ctrlc
 .text.clear_ctrlc
                0x86817f50       0x14 common/built-in.o
                0x86817f50                clear_ctrlc
 .text.search_device
                0x86817f64       0x28 common/built-in.o
                0x86817f64                search_device
 .text.console_assign
                0x86817f8c       0x48 common/built-in.o
                0x86817f8c                console_assign
 .text.on_console
                0x86817fd4       0xc0 common/built-in.o
 .text.console_init_f
                0x86818094       0x10 common/built-in.o
                0x86818094                console_init_f
 .text.stdio_print_current_devices
                0x868180a4       0xb0 common/built-in.o
                0x868180a4                stdio_print_current_devices
 .text.console_init_r
                0x86818154      0x180 common/built-in.o
                0x86818154                console_init_r
 .text.sbrk     0x868182d4       0x6c common/built-in.o
                0x868182d4                sbrk
 .text.mem_malloc_init
                0x86818340       0x34 common/built-in.o
                0x86818340                mem_malloc_init
 .text.malloc_trim
                0x86818374       0xcc common/built-in.o
                0x86818374                malloc_trim
 .text.free     0x86818440      0x24c common/built-in.o
                0x86818440                free
 .text.malloc   0x8681868c      0x62c common/built-in.o
                0x8681868c                malloc
 .text.calloc   0x86818cb8      0x148 common/built-in.o
                0x86818cb8                calloc
 .text.realloc  0x86818e00      0x4dc common/built-in.o
                0x86818e00                realloc
 .text.memalign
                0x868192dc      0x10c common/built-in.o
                0x868192dc                memalign
 .text.malloc_simple
                0x868193e8       0x30 common/built-in.o
                0x868193e8                malloc_simple
 .text.on_loadaddr
                0x86819418       0x38 common/built-in.o
 .text.image_check_hcrc
                0x86819450       0x4c common/built-in.o
                0x86819450                image_check_hcrc
 .text.image_check_dcrc
                0x8681949c       0x38 common/built-in.o
                0x8681949c                image_check_dcrc
 .text.image_multi_count
                0x868194d4       0x1c common/built-in.o
                0x868194d4                image_multi_count
 .text.image_multi_getimg
                0x868194f0       0x80 common/built-in.o
                0x868194f0                image_multi_getimg
 .text.getenv_bootm_low
                0x86819570       0x30 common/built-in.o
                0x86819570                getenv_bootm_low
 .text.getenv_bootm_size
                0x868195a0       0x5c common/built-in.o
                0x868195a0                getenv_bootm_size
 .text.getenv_bootm_mapsize
                0x868195fc       0x30 common/built-in.o
                0x868195fc                getenv_bootm_mapsize
 .text.memmove_wd
                0x8681962c        0xc common/built-in.o
                0x8681962c                memmove_wd
 .text.genimg_print_size
                0x86819638       0x30 common/built-in.o
                0x86819638                genimg_print_size
 .text.get_table_entry_name
                0x86819668       0x2c common/built-in.o
                0x86819668                get_table_entry_name
 .text.genimg_get_os_name
                0x86819694       0x18 common/built-in.o
                0x86819694                genimg_get_os_name
 .text.genimg_get_arch_name
                0x868196ac       0x18 common/built-in.o
                0x868196ac                genimg_get_arch_name
 .text.genimg_get_type_name
                0x868196c4       0x18 common/built-in.o
                0x868196c4                genimg_get_type_name
 .text.genimg_get_comp_name
                0x868196dc       0x18 common/built-in.o
                0x868196dc                genimg_get_comp_name
 .text.image_print_contents
                0x868196f4      0x174 common/built-in.o
                0x868196f4                image_print_contents
 .text.genimg_get_kernel_addr_fit
                0x86819868       0x24 common/built-in.o
                0x86819868                genimg_get_kernel_addr_fit
 .text.genimg_get_format
                0x8681988c       0x34 common/built-in.o
                0x8681988c                genimg_get_format
 .text.genimg_get_image
                0x868198c0        0x4 common/built-in.o
                0x868198c0                genimg_get_image
 .text.genimg_has_config
                0x868198c4        0x8 common/built-in.o
                0x868198c4                genimg_has_config
 .text.boot_get_ramdisk
                0x868198cc      0x238 common/built-in.o
                0x868198cc                boot_get_ramdisk
 .text.boot_ramdisk_high
                0x86819b04      0x130 common/built-in.o
                0x86819b04                boot_ramdisk_high
 .text.boot_get_setup
                0x86819c34        0x8 common/built-in.o
                0x86819c34                boot_get_setup
 .text.image_setup_linux
                0x86819c3c       0x8c common/built-in.o
                0x86819c3c                image_setup_linux
 .text.fdt_error
                0x86819cc8       0x2c common/built-in.o
 .text.boot_fdt_add_mem_rsv_regions
                0x86819cf4       0x88 common/built-in.o
                0x86819cf4                boot_fdt_add_mem_rsv_regions
 .text.boot_relocate_fdt
                0x86819d7c      0x198 common/built-in.o
                0x86819d7c                boot_relocate_fdt
 .text.boot_get_fdt
                0x86819f14      0x2ac common/built-in.o
                0x86819f14                boot_get_fdt
 .text.ft_verify_fdt
                0x8681a1c0        0x8 common/built-in.o
                0x8681a1c0                ft_verify_fdt
 .text.image_setup_libfdt
                0x8681a1c8       0xe8 common/built-in.o
                0x8681a1c8                image_setup_libfdt
 .text.get_effective_memsize
                0x8681a2b0        0x8 common/built-in.o
                0x8681a2b0                get_effective_memsize
 .text.nulldev_putc
                0x8681a2b8        0x4 common/built-in.o
 .text.nulldev_puts
                0x8681a2bc        0x4 common/built-in.o
 .text.nulldev_input
                0x8681a2c0        0x8 common/built-in.o
 .text.stdio_serial_tstc
                0x8681a2c8        0x4 common/built-in.o
 .text.stdio_serial_getc
                0x8681a2cc        0x4 common/built-in.o
 .text.stdio_serial_puts
                0x8681a2d0        0x8 common/built-in.o
 .text.stdio_serial_putc
                0x8681a2d8        0x8 common/built-in.o
 .text.stdio_get_list
                0x8681a2e0        0xc common/built-in.o
                0x8681a2e0                stdio_get_list
 .text.stdio_get_by_name
                0x8681a2ec       0x5c common/built-in.o
                0x8681a2ec                stdio_get_by_name
 .text.stdio_clone
                0x8681a348       0x38 common/built-in.o
                0x8681a348                stdio_clone
 .text.stdio_register_dev
                0x8681a380       0x50 common/built-in.o
                0x8681a380                stdio_register_dev
 .text.stdio_register
                0x8681a3d0        0x8 common/built-in.o
                0x8681a3d0                stdio_register
 .text.stdio_init_tables
                0x8681a3d8       0x1c common/built-in.o
                0x8681a3d8                stdio_init_tables
 .text.stdio_add_devices
                0x8681a3f4       0xd4 common/built-in.o
                0x8681a3f4                stdio_add_devices
 .text.run_command
                0x8681a4c8       0x10 common/built-in.o
                0x8681a4c8                run_command
 .text.run_command_list
                0x8681a4d8       0x7c common/built-in.o
                0x8681a4d8                run_command_list
 .text.do_run   0x8681a554       0x78 common/built-in.o
                0x8681a554                do_run
 .text.cli_loop
                0x8681a5cc        0xc common/built-in.o
                0x8681a5cc                cli_loop
 .text.cli_init
                0x8681a5d8        0x4 common/built-in.o
                0x8681a5d8                cli_init
 .text.delete_char.part.0
                0x8681a5dc       0xd4 common/built-in.o
 .text.cread_add_char
                0x8681a6b0       0xec common/built-in.o
 .text.cli_readline_into_buffer
                0x8681a79c      0x9c0 common/built-in.o
                0x8681a79c                cli_readline_into_buffer
 .text.cli_readline
                0x8681b15c       0x14 common/built-in.o
                0x8681b15c                cli_readline
 .text.find_cmd_tbl
                0x8681b170       0xa4 common/built-in.o
                0x8681b170                find_cmd_tbl
 .text.find_cmd
                0x8681b214       0x28 common/built-in.o
                0x8681b214                find_cmd
 .text.cmd_usage
                0x8681b23c       0x5c common/built-in.o
                0x8681b23c                cmd_usage
 .text._do_help
                0x8681b298      0x180 common/built-in.o
                0x8681b298                _do_help
 .text.var_complete
                0x8681b418       0x84 common/built-in.o
                0x8681b418                var_complete
 .text.cmd_auto_complete
                0x8681b49c      0x4b4 common/built-in.o
                0x8681b49c                cmd_auto_complete
 .text.cmd_get_data_size
                0x8681b950       0x5c common/built-in.o
                0x8681b950                cmd_get_data_size
 .text.cmd_process
                0x8681b9ac       0xf4 common/built-in.o
                0x8681b9ac                cmd_process
 .text.cmd_process_error
                0x8681baa0       0x30 common/built-in.o
                0x8681baa0                cmd_process_error
 .text.hex1_bin
                0x8681bad0       0x40 common/built-in.o
 .text.hex2_bin
                0x8681bb10       0x38 common/built-in.o
 .text.srec_decode
                0x8681bb48      0x254 common/built-in.o
                0x8681bb48                srec_decode
 .text.CYGACC_COMM_IF_GETC_TIMEOUT.isra.0
                0x8681bd9c       0x5c common/built-in.o
 .text.xyzModem_flush
                0x8681bdf8       0x1c common/built-in.o
 .text.xyzModem_get_hdr
                0x8681be14      0x22c common/built-in.o
 .text.xyzModem_stream_open
                0x8681c040      0x23c common/built-in.o
                0x8681c040                xyzModem_stream_open
 .text.xyzModem_stream_read
                0x8681c27c      0x258 common/built-in.o
                0x8681c27c                xyzModem_stream_read
 .text.xyzModem_stream_close
                0x8681c4d4       0x54 common/built-in.o
                0x8681c4d4                xyzModem_stream_close
 .text.xyzModem_stream_terminate
                0x8681c528       0x94 common/built-in.o
                0x8681c528                xyzModem_stream_terminate
 .text.xyzModem_error
                0x8681c5bc       0x20 common/built-in.o
                0x8681c5bc                xyzModem_error
 .text.common_diskboot
                0x8681c5dc      0x244 common/built-in.o
                0x8681c5dc                common_diskboot
 .text.get_dev_hwpart
                0x8681c820       0xb0 disk/built-in.o
 .text.dev_print
                0x8681c8d0      0x214 disk/built-in.o
                0x8681c8d0                dev_print
 .text.init_part
                0x8681cae4       0x20 disk/built-in.o
                0x8681cae4                init_part
 .text.print_part
                0x8681cb04       0xf4 disk/built-in.o
                0x8681cb04                print_part
 .text.get_partition_info
                0x8681cbf8       0x2c disk/built-in.o
                0x8681cbf8                get_partition_info
 .text.get_device
                0x8681cc24      0x114 disk/built-in.o
                0x8681cc24                get_device
 .text.get_device_and_partition
                0x8681cd38      0x444 disk/built-in.o
                0x8681cd38                get_device_and_partition
 .text.test_block_type
                0x8681d17c       0x84 disk/built-in.o
 .text.print_partition_extended
                0x8681d200      0x278 disk/built-in.o
 .text.get_partition_info_extended.constprop.2
                0x8681d478      0x30c disk/built-in.o
 .text.test_part_dos
                0x8681d784       0x64 disk/built-in.o
                0x8681d784                test_part_dos
 .text.print_part_dos
                0x8681d7e8       0x34 disk/built-in.o
                0x8681d7e8                print_part_dos
 .text.get_partition_info_dos
                0x8681d81c       0x20 disk/built-in.o
                0x8681d81c                get_partition_info_dos
 .text.device_bind
                0x8681d83c      0x268 drivers/built-in.o
                0x8681d83c                device_bind
 .text.device_bind_by_name
                0x8681daa4       0x60 drivers/built-in.o
                0x8681daa4                device_bind_by_name
 .text.device_probe
                0x8681db04        0x8 drivers/built-in.o
                0x8681db04                device_probe
 .text.device_probe_child
                0x8681db0c      0x210 drivers/built-in.o
                0x8681db0c                device_probe_child
 .text.dev_get_platdata
                0x8681dd1c       0x34 drivers/built-in.o
                0x8681dd1c                dev_get_platdata
 .text.dev_get_priv
                0x8681dd50       0x34 drivers/built-in.o
                0x8681dd50                dev_get_priv
 .text.lists_driver_lookup_name
                0x8681dd84       0x4c drivers/built-in.o
                0x8681dd84                lists_driver_lookup_name
 .text.lists_uclass_lookup
                0x8681ddd0       0x3c drivers/built-in.o
                0x8681ddd0                lists_uclass_lookup
 .text.lists_bind_drivers
                0x8681de0c       0x88 drivers/built-in.o
                0x8681de0c                lists_bind_drivers
 .text.dm_root  0x8681de94       0x28 drivers/built-in.o
                0x8681de94                dm_root
 .text.dm_init  0x8681debc       0x58 drivers/built-in.o
                0x8681debc                dm_init
 .text.dm_scan_platdata
                0x8681df14       0x2c drivers/built-in.o
                0x8681df14                dm_scan_platdata
 .text.dm_scan_other
                0x8681df40        0x8 drivers/built-in.o
                0x8681df40                dm_scan_other
 .text.dm_init_and_scan
                0x8681df48       0x30 drivers/built-in.o
                0x8681df48                dm_init_and_scan
 .text.uclass_find
                0x8681df78       0x4c drivers/built-in.o
                0x8681df78                uclass_find
 .text.uclass_get
                0x8681dfc4      0x134 drivers/built-in.o
                0x8681dfc4                uclass_get
 .text.uclass_find_device
                0x8681e0f8       0x68 drivers/built-in.o
                0x8681e0f8                uclass_find_device
 .text.uclass_find_device_by_seq
                0x8681e160       0x7c drivers/built-in.o
                0x8681e160                uclass_find_device_by_seq
 .text.uclass_get_device
                0x8681e1dc       0x3c drivers/built-in.o
                0x8681e1dc                uclass_get_device
 .text.uclass_bind_device
                0x8681e218       0xa4 drivers/built-in.o
                0x8681e218                uclass_bind_device
 .text.uclass_unbind_device
                0x8681e2bc       0x50 drivers/built-in.o
                0x8681e2bc                uclass_unbind_device
 .text.uclass_resolve_seq
                0x8681e30c       0xb0 drivers/built-in.o
                0x8681e30c                uclass_resolve_seq
 .text.uclass_pre_probe_child
                0x8681e3bc       0x2c drivers/built-in.o
                0x8681e3bc                uclass_pre_probe_child
 .text.uclass_post_probe_device
                0x8681e3e8       0x20 drivers/built-in.o
                0x8681e3e8                uclass_post_probe_device
 .text.uclass_pre_remove_device
                0x8681e408       0x5c drivers/built-in.o
                0x8681e408                uclass_pre_remove_device
 .text.dm_warn  0x8681e464       0x28 drivers/built-in.o
                0x8681e464                dm_warn
 .text.device_free
                0x8681e48c       0x90 drivers/built-in.o
                0x8681e48c                device_free
 .text.device_remove
                0x8681e51c      0x138 drivers/built-in.o
                0x8681e51c                device_remove
 .text.finish_access
                0x8681e654       0x2c drivers/built-in.o
 .text.set_timing
                0x8681e680       0xb8 drivers/built-in.o
 .text.prepare_access
                0x8681e738       0x8c drivers/built-in.o
 .text.fuse_bank_physical
                0x8681e7c4       0x78 drivers/built-in.o
                0x8681e7c4                fuse_bank_physical
 .text.fuse_read
                0x8681e83c       0x74 drivers/built-in.o
                0x8681e83c                fuse_read
 .text.fuse_sense
                0x8681e8b0       0xac drivers/built-in.o
                0x8681e8b0                fuse_sense
 .text.fuse_prog
                0x8681e95c       0xa8 drivers/built-in.o
                0x8681e95c                fuse_prog
 .text.fuse_override
                0x8681ea04       0x6c drivers/built-in.o
                0x8681ea04                fuse_override
 .text.video_drawchars
                0x8681ea70      0x44c drivers/built-in.o
 .text.draw_bitmap
                0x8681eebc       0xdc drivers/built-in.o
 .text.console_newline.constprop.1
                0x8681ef98       0xe0 drivers/built-in.o
 .text.video_putc
                0x8681f078      0x194 drivers/built-in.o
 .text.video_puts
                0x8681f20c       0x7c drivers/built-in.o
 .text.board_cfb_skip
                0x8681f288        0x8 drivers/built-in.o
                0x8681f288                board_cfb_skip
 .text.video_set_lut
                0x8681f290        0x4 drivers/built-in.o
                0x8681f290                video_set_lut
 .text.display_rle8_bitmap
                0x8681f294      0x348 drivers/built-in.o
 .text.plot_logo_or_black
                0x8681f5dc      0x1ec drivers/built-in.o
 .text.do_clrlogo
                0x8681f7c8       0x58 drivers/built-in.o
 .text.video_display_bitmap
                0x8681f820      0x98c drivers/built-in.o
                0x8681f820                video_display_bitmap
 .text.video_clear
                0x868201ac       0x54 drivers/built-in.o
                0x868201ac                video_clear
 .text.drv_video_init
                0x86820200      0x450 drivers/built-in.o
                0x86820200                drv_video_init
 .text.mxsfb_system_setup
                0x86820650        0x4 drivers/built-in.o
                0x86820650                mxsfb_system_setup
 .text.mxs_lcd_panel_setup
                0x86820654       0x78 drivers/built-in.o
                0x86820654                mxs_lcd_panel_setup
 .text.lcdif_power_down
                0x868206cc       0x5c drivers/built-in.o
                0x868206cc                lcdif_power_down
 .text.video_hw_init
                0x86820728      0x320 drivers/built-in.o
                0x86820728                video_hw_init
 .text.video_get_param_len.constprop.1
                0x86820a48       0x20 drivers/built-in.o
 .text.video_get_params
                0x86820a68      0x4e0 drivers/built-in.o
                0x86820a68                video_get_params
 .text.reset_cpu
                0x86820f48       0x28 drivers/built-in.o
                0x86820f48                reset_cpu
 .text.thermal_get_temp
                0x86820f70       0x20 drivers/built-in.o
                0x86820f70                thermal_get_temp
 .text.read_cpu_temperature
                0x86820f90      0x144 drivers/built-in.o
 .text.imx_thermal_get_temp
                0x868210d4       0x48 drivers/built-in.o
                0x868210d4                imx_thermal_get_temp
 .text.imx_thermal_probe
                0x8682111c       0x7c drivers/built-in.o
 .text.mxs_dma_validate_chan
                0x86821198       0x34 drivers/dma/built-in.o
                0x86821198                mxs_dma_validate_chan
 .text.mxs_dma_ack_irq
                0x868211cc       0x30 drivers/dma/built-in.o
 .text.mxs_dma_reset
                0x868211fc       0x30 drivers/dma/built-in.o
 .text.mxs_dma_flush_desc
                0x8682122c        0x8 drivers/dma/built-in.o
                0x8682122c                mxs_dma_flush_desc
 .text.mxs_dma_release
                0x86821234       0x48 drivers/dma/built-in.o
                0x86821234                mxs_dma_release
 .text.mxs_dma_desc_alloc
                0x8682127c       0x30 drivers/dma/built-in.o
                0x8682127c                mxs_dma_desc_alloc
 .text.mxs_dma_desc_free
                0x868212ac        0xc drivers/dma/built-in.o
                0x868212ac                mxs_dma_desc_free
 .text.mxs_dma_desc_append
                0x868212b8       0xc8 drivers/dma/built-in.o
                0x868212b8                mxs_dma_desc_append
 .text.mxs_dma_go
                0x86821380      0x2f4 drivers/dma/built-in.o
                0x86821380                mxs_dma_go
 .text.mxs_dma_init
                0x86821674       0x28 drivers/dma/built-in.o
                0x86821674                mxs_dma_init
 .text.mxs_dma_init_channel
                0x8682169c       0x80 drivers/dma/built-in.o
                0x8682169c                mxs_dma_init_channel
 .text.gpio_set_value
                0x8682171c       0x44 drivers/gpio/built-in.o
                0x8682171c                gpio_set_value
 .text.gpio_get_value
                0x86821760       0x34 drivers/gpio/built-in.o
                0x86821760                gpio_get_value
 .text.gpio_request
                0x86821794       0x10 drivers/gpio/built-in.o
                0x86821794                gpio_request
 .text.gpio_direction_input
                0x868217a4       0x3c drivers/gpio/built-in.o
                0x868217a4                gpio_direction_input
 .text.gpio_direction_output
                0x868217e0       0x50 drivers/gpio/built-in.o
                0x868217e0                gpio_direction_output
 .text.i2c_get_adapter
                0x86821830       0x64 drivers/i2c/built-in.o
                0x86821830                i2c_get_adapter
 .text.i2c_init_bus
                0x86821894       0x90 drivers/i2c/built-in.o
 .text.i2c_get_bus_num
                0x86821924        0x8 drivers/i2c/built-in.o
                0x86821924                i2c_get_bus_num
 .text.i2c_set_bus_num
                0x8682192c       0xb8 drivers/i2c/built-in.o
                0x8682192c                i2c_set_bus_num
 .text.i2c_init_all
                0x868219e4       0x14 drivers/i2c/built-in.o
                0x868219e4                i2c_init_all
 .text.i2c_probe
                0x868219f8       0x2c drivers/i2c/built-in.o
                0x868219f8                i2c_probe
 .text.i2c_read
                0x86821a24       0x4c drivers/i2c/built-in.o
                0x86821a24                i2c_read
 .text.i2c_write
                0x86821a70       0x4c drivers/i2c/built-in.o
                0x86821a70                i2c_write
 .text.i2c_set_bus_speed
                0x86821abc       0x64 drivers/i2c/built-in.o
                0x86821abc                i2c_set_bus_speed
 .text.i2c_get_bus_speed
                0x86821b20       0x14 drivers/i2c/built-in.o
                0x86821b20                i2c_get_bus_speed
 .text.i2c_init
                0x86821b34       0x14 drivers/i2c/built-in.o
                0x86821b34                i2c_init
 .text.wait_for_sr_state
                0x86821b48       0xb0 drivers/i2c/built-in.o
 .text.tx_byte  0x86821bf8       0x2c drivers/i2c/built-in.o
 .text.i2c_imx_get_clk
                0x86821c24       0x64 drivers/i2c/built-in.o
 .text.i2c_imx_stop
                0x86821c88       0x3c drivers/i2c/built-in.o
 .text.mxc_i2c_set_bus_speed
                0x86821cc4       0x40 drivers/i2c/built-in.o
 .text.__i2c_force_reset_slave
                0x86821d04        0x4 drivers/i2c/built-in.o
                0x86821d04                __i2c_force_reset_slave
                0x86821d04                i2c_force_reset_slave
 .text.i2c_init_transfer
                0x86821d08      0x1dc drivers/i2c/built-in.o
 .text.bus_i2c_read
                0x86821ee4      0x100 drivers/i2c/built-in.o
                0x86821ee4                bus_i2c_read
 .text.mxc_i2c_read
                0x86821fe4       0x14 drivers/i2c/built-in.o
 .text.bus_i2c_write
                0x86821ff8       0x50 drivers/i2c/built-in.o
                0x86821ff8                bus_i2c_write
 .text.mxc_i2c_write
                0x86822048       0x14 drivers/i2c/built-in.o
 .text.mxc_i2c_probe
                0x8682205c       0x30 drivers/i2c/built-in.o
 .text.bus_i2c_init
                0x8682208c       0x74 drivers/i2c/built-in.o
                0x8682208c                bus_i2c_init
 .text.mxc_i2c_init
                0x86822100       0x28 drivers/i2c/built-in.o
 .text.esdhc_getcd
                0x86822128       0x40 drivers/mmc/built-in.o
 .text.esdhc_set_ios
                0x86822168      0x124 drivers/mmc/built-in.o
 .text.esdhc_init
                0x8682228c       0xa8 drivers/mmc/built-in.o
 .text.check_and_invalidate_dcache_range.isra.1
                0x86822334       0x30 drivers/mmc/built-in.o
 .text.esdhc_send_cmd
                0x86822364      0x3ec drivers/mmc/built-in.o
 .text.fsl_esdhc_initialize
                0x86822750      0x168 drivers/mmc/built-in.o
                0x86822750                fsl_esdhc_initialize
 .text.fsl_esdhc_mmc_init
                0x868228b8       0x38 drivers/mmc/built-in.o
                0x868228b8                fsl_esdhc_mmc_init
 .text.mmc_set_ios
                0x868228f0       0x18 drivers/mmc/built-in.o
 .text.mmc_set_capacity
                0x86822908       0xa8 drivers/mmc/built-in.o
 .text.board_mmc_getwp
                0x868229b0        0x8 drivers/mmc/built-in.o
                0x868229b0                board_mmc_getwp
 .text.mmc_getwp
                0x868229b8       0x3c drivers/mmc/built-in.o
                0x868229b8                mmc_getwp
 .text.mmc_send_cmd
                0x868229f4       0x10 drivers/mmc/built-in.o
                0x868229f4                mmc_send_cmd
 .text.mmc_send_ext_csd
                0x86822a04       0x4c drivers/mmc/built-in.o
 .text.mmc_go_idle
                0x86822a50       0x4c drivers/mmc/built-in.o
 .text.mmc_send_op_cond_iter
                0x86822a9c       0x80 drivers/mmc/built-in.o
 .text.mmc_send_status
                0x86822b1c       0xd0 drivers/mmc/built-in.o
                0x86822b1c                mmc_send_status
 .text.mmc_switch.isra.1
                0x86822bec       0x54 drivers/mmc/built-in.o
 .text.mmc_set_blocklen
                0x86822c40       0x40 drivers/mmc/built-in.o
                0x86822c40                mmc_set_blocklen
 .text.find_mmc_device
                0x86822c80       0x4c drivers/mmc/built-in.o
                0x86822c80                find_mmc_device
 .text.mmc_bread
                0x86822ccc      0x148 drivers/mmc/built-in.o
 .text.mmc_switch_part
                0x86822e14       0x58 drivers/mmc/built-in.o
                0x86822e14                mmc_switch_part
 .text.mmc_select_hwpart
                0x86822e6c       0x6c drivers/mmc/built-in.o
                0x86822e6c                mmc_select_hwpart
 .text.mmc_hwpart_config
                0x86822ed8      0x41c drivers/mmc/built-in.o
                0x86822ed8                mmc_hwpart_config
 .text.mmc_getcd
                0x868232f4       0x3c drivers/mmc/built-in.o
                0x868232f4                mmc_getcd
 .text.mmc_set_clock
                0x86823330       0x24 drivers/mmc/built-in.o
                0x86823330                mmc_set_clock
 .text.mmc_startup
                0x86823354      0xd28 drivers/mmc/built-in.o
 .text.mmc_create
                0x8682407c       0xfc drivers/mmc/built-in.o
                0x8682407c                mmc_create
 .text.board_mmc_power_init
                0x86824178        0x4 drivers/mmc/built-in.o
                0x86824178                board_mmc_power_init
 .text.mmc_start_init
                0x8682417c      0x288 drivers/mmc/built-in.o
                0x8682417c                mmc_start_init
 .text.mmc_init
                0x86824404      0x100 drivers/mmc/built-in.o
                0x86824404                mmc_init
 .text.mmc_get_dev
                0x86824504       0x2c drivers/mmc/built-in.o
                0x86824504                mmc_get_dev
 .text.mmc_set_dsr
                0x86824530        0xc drivers/mmc/built-in.o
                0x86824530                mmc_set_dsr
 .text.print_mmc_devices
                0x8682453c       0xc0 drivers/mmc/built-in.o
                0x8682453c                print_mmc_devices
 .text.get_mmc_num
                0x868245fc       0x10 drivers/mmc/built-in.o
                0x868245fc                get_mmc_num
 .text.mmc_initialize
                0x8682460c       0x74 drivers/mmc/built-in.o
                0x8682460c                mmc_initialize
 .text.mmc_berase
                0x86824680      0x194 drivers/mmc/built-in.o
                0x86824680                mmc_berase
 .text.mmc_bwrite
                0x86824814      0x168 drivers/mmc/built-in.o
                0x86824814                mmc_bwrite
 .text.idr_get_next
                0x8682497c       0x44 drivers/mtd/built-in.o
                0x8682497c                idr_get_next
 .text.__mtd_next_device
                0x868249c0       0x20 drivers/mtd/built-in.o
                0x868249c0                __mtd_next_device
 .text.del_mtd_device
                0x868249e0       0x64 drivers/mtd/built-in.o
                0x868249e0                del_mtd_device
 .text.__get_mtd_device
                0x86824a44       0x38 drivers/mtd/built-in.o
                0x86824a44                __get_mtd_device
 .text.get_mtd_device
                0x86824a7c       0x8c drivers/mtd/built-in.o
                0x86824a7c                get_mtd_device
 .text.get_mtd_device_nm
                0x86824b08       0x58 drivers/mtd/built-in.o
                0x86824b08                get_mtd_device_nm
 .text.__put_mtd_device
                0x86824b60       0x4c drivers/mtd/built-in.o
                0x86824b60                __put_mtd_device
 .text.put_mtd_device
                0x86824bac        0x4 drivers/mtd/built-in.o
                0x86824bac                put_mtd_device
 .text.mtd_erase
                0x86824bb0       0x84 drivers/mtd/built-in.o
                0x86824bb0                mtd_erase
 .text.mtd_read
                0x86824c34       0xa8 drivers/mtd/built-in.o
                0x86824c34                mtd_read
 .text.mtd_write
                0x86824cdc       0x9c drivers/mtd/built-in.o
                0x86824cdc                mtd_write
 .text.mtd_read_oob
                0x86824d78       0x60 drivers/mtd/built-in.o
                0x86824d78                mtd_read_oob
 .text.mtd_unlock
                0x86824dd8       0x74 drivers/mtd/built-in.o
                0x86824dd8                mtd_unlock
 .text.add_mtd_device
                0x86824e4c      0x1e0 drivers/mtd/built-in.o
                0x86824e4c                add_mtd_device
 .text.mtd_block_isbad
                0x8682502c       0x4c drivers/mtd/built-in.o
                0x8682502c                mtd_block_isbad
 .text.mtd_block_markbad
                0x86825078       0x60 drivers/mtd/built-in.o
                0x86825078                mtd_block_markbad
 .text.part_get_unmapped_area
                0x868250d8       0x20 drivers/mtd/built-in.o
 .text.part_read_user_prot_reg
                0x868250f8        0xc drivers/mtd/built-in.o
 .text.part_get_user_prot_info
                0x86825104        0xc drivers/mtd/built-in.o
 .text.part_read_fact_prot_reg
                0x86825110        0xc drivers/mtd/built-in.o
 .text.part_get_fact_prot_info
                0x8682511c        0xc drivers/mtd/built-in.o
 .text.part_write
                0x86825128       0x24 drivers/mtd/built-in.o
 .text.part_panic_write
                0x8682514c       0x24 drivers/mtd/built-in.o
 .text.part_write_oob
                0x86825170       0x68 drivers/mtd/built-in.o
 .text.part_write_user_prot_reg
                0x868251d8        0xc drivers/mtd/built-in.o
 .text.part_lock_user_prot_reg
                0x868251e4        0xc drivers/mtd/built-in.o
 .text.part_lock
                0x868251f0       0x24 drivers/mtd/built-in.o
 .text.part_unlock
                0x86825214       0x24 drivers/mtd/built-in.o
 .text.part_is_locked
                0x86825238       0x24 drivers/mtd/built-in.o
 .text.part_sync
                0x8682525c        0xc drivers/mtd/built-in.o
 .text.part_block_isbad
                0x86825268       0x20 drivers/mtd/built-in.o
 .text.part_block_markbad
                0x86825288       0x34 drivers/mtd/built-in.o
 .text.part_read
                0x868252bc       0x78 drivers/mtd/built-in.o
 .text.part_read_oob
                0x86825334      0x198 drivers/mtd/built-in.o
 .text.part_erase
                0x868254cc       0x74 drivers/mtd/built-in.o
 .text.kstrdup  0x86825540       0x50 drivers/mtd/built-in.o
                0x86825540                kstrdup
 .text.mtd_erase_callback
                0x86825590       0x6c drivers/mtd/built-in.o
                0x86825590                mtd_erase_callback
 .text.del_mtd_partitions
                0x868255fc       0x94 drivers/mtd/built-in.o
                0x868255fc                del_mtd_partitions
 .text.add_mtd_partitions
                0x86825690      0x6cc drivers/mtd/built-in.o
                0x86825690                add_mtd_partitions
 .text.mtd_is_partition
                0x86825d5c       0x3c drivers/mtd/built-in.o
                0x86825d5c                mtd_is_partition
 .text.mtd_get_device_size
                0x86825d98       0x28 drivers/mtd/built-in.o
                0x86825d98                mtd_get_device_size
 .text.nand_register
                0x86825dc0       0x94 drivers/mtd/nand/built-in.o
                0x86825dc0                nand_register
 .text.nand_init
                0x86825e54       0x68 drivers/mtd/nand/built-in.o
                0x86825e54                nand_init
 .text.verify_bbt_descr
                0x86825ebc      0x120 drivers/mtd/nand/built-in.o
 .text.create_bbt
                0x86825fdc      0x224 drivers/mtd/nand/built-in.o
 .text.scan_read
                0x86826200      0x100 drivers/mtd/nand/built-in.o
 .text.read_bbt
                0x86826300      0x1ec drivers/mtd/nand/built-in.o
 .text.read_abs_bbt
                0x868264ec       0xc4 drivers/mtd/nand/built-in.o
 .text.write_bbt
                0x868265b0      0x5d0 drivers/mtd/nand/built-in.o
 .text.nand_update_bbt
                0x86826b80      0x124 drivers/mtd/nand/built-in.o
 .text.mark_bbt_region
                0x86826ca4      0x17c drivers/mtd/nand/built-in.o
 .text.search_bbt
                0x86826e20      0x1a0 drivers/mtd/nand/built-in.o
 .text.nand_scan_bbt
                0x86826fc0      0x4ec drivers/mtd/nand/built-in.o
                0x86826fc0                nand_scan_bbt
 .text.nand_default_bbt
                0x868274ac       0xc4 drivers/mtd/nand/built-in.o
                0x868274ac                nand_default_bbt
 .text.nand_isbad_bbt
                0x86827570       0x54 drivers/mtd/nand/built-in.o
                0x86827570                nand_isbad_bbt
 .text.nand_markbad_bbt
                0x868275c4       0x64 drivers/mtd/nand/built-in.o
                0x868275c4                nand_markbad_bbt
 .text.check_skip_len
                0x86827628       0xac drivers/mtd/nand/built-in.o
 .text.nand_erase_opts
                0x868276d4      0x374 drivers/mtd/nand/built-in.o
                0x868276d4                nand_erase_opts
 .text.nand_verify_page_oob
                0x86827a48       0xbc drivers/mtd/nand/built-in.o
                0x86827a48                nand_verify_page_oob
 .text.nand_verify
                0x86827b04       0xe8 drivers/mtd/nand/built-in.o
                0x86827b04                nand_verify
 .text.nand_write_skip_bad
                0x86827bec      0x340 drivers/mtd/nand/built-in.o
                0x86827bec                nand_write_skip_bad
 .text.nand_read_skip_bad
                0x86827f2c      0x278 drivers/mtd/nand/built-in.o
                0x86827f2c                nand_read_skip_bad
 .text.nand_calculate_ecc
                0x868281a4       0xf4 drivers/mtd/nand/built-in.o
                0x868281a4                nand_calculate_ecc
 .text.nand_correct_data
                0x86828298      0x120 drivers/mtd/nand/built-in.o
                0x86828298                nand_correct_data
 .text.nand_release_device
                0x868283b8       0x10 drivers/mtd/nand/built-in.o
 .text.nand_read_byte
                0x868283c8       0x14 drivers/mtd/nand/built-in.o
                0x868283c8                nand_read_byte
 .text.nand_read_byte16
                0x868283dc       0x18 drivers/mtd/nand/built-in.o
 .text.nand_read_word
                0x868283f4       0x14 drivers/mtd/nand/built-in.o
 .text.nand_write_byte
                0x86828408       0x28 drivers/mtd/nand/built-in.o
 .text.nand_write_byte16
                0x86828430       0x28 drivers/mtd/nand/built-in.o
 .text.nand_write_buf
                0x86828458       0x28 drivers/mtd/nand/built-in.o
                0x86828458                nand_write_buf
 .text.nand_read_buf
                0x86828480       0x2c drivers/mtd/nand/built-in.o
                0x86828480                nand_read_buf
 .text.nand_write_buf16
                0x868284ac       0x30 drivers/mtd/nand/built-in.o
                0x868284ac                nand_write_buf16
 .text.nand_read_buf16
                0x868284dc       0x34 drivers/mtd/nand/built-in.o
                0x868284dc                nand_read_buf16
 .text.nand_check_wp
                0x86828510       0x50 drivers/mtd/nand/built-in.o
 .text.nand_read_page_raw_syndrome
                0x86828560       0xd4 drivers/mtd/nand/built-in.o
 .text.nand_read_page_swecc
                0x86828634      0x138 drivers/mtd/nand/built-in.o
 .text.nand_read_subpage
                0x8682876c      0x274 drivers/mtd/nand/built-in.o
 .text.nand_read_page_hwecc
                0x868289e0      0x158 drivers/mtd/nand/built-in.o
 .text.nand_read_page_hwecc_oob_first
                0x86828b38      0x150 drivers/mtd/nand/built-in.o
 .text.nand_read_page_syndrome
                0x86828c88      0x144 drivers/mtd/nand/built-in.o
 .text.nand_setup_read_retry
                0x86828dcc       0x30 drivers/mtd/nand/built-in.o
 .text.nand_read_oob_std
                0x86828dfc       0x3c drivers/mtd/nand/built-in.o
 .text.nand_read_oob_syndrome
                0x86828e38      0x100 drivers/mtd/nand/built-in.o
 .text.nand_write_oob_std
                0x86828f38       0x70 drivers/mtd/nand/built-in.o
 .text.nand_write_oob_syndrome
                0x86828fa8      0x198 drivers/mtd/nand/built-in.o
 .text.nand_write_page_raw_syndrome
                0x86829140       0xd4 drivers/mtd/nand/built-in.o
 .text.nand_write_page_swecc
                0x86829214       0xb8 drivers/mtd/nand/built-in.o
 .text.nand_write_page_hwecc
                0x868292cc       0xd0 drivers/mtd/nand/built-in.o
 .text.nand_write_page_syndrome
                0x8682939c       0xf4 drivers/mtd/nand/built-in.o
 .text.single_erase_cmd
                0x86829490       0x3c drivers/mtd/nand/built-in.o
 .text.nand_sync
                0x868294cc       0x10 drivers/mtd/nand/built-in.o
 .text.nand_set_defaults
                0x868294dc      0x190 drivers/mtd/nand/built-in.o
 .text.nand_setup_read_retry_micron
                0x8682966c       0x30 drivers/mtd/nand/built-in.o
 .text.nand_block_checkbad
                0x8682969c       0x84 drivers/mtd/nand/built-in.o
 .text.nand_block_isbad
                0x86829720       0x1c drivers/mtd/nand/built-in.o
 .text.nand_block_bad
                0x8682973c      0x1b4 drivers/mtd/nand/built-in.o
 .text.nand_write_page
                0x868298f0      0x12c drivers/mtd/nand/built-in.o
 .text.nand_write_subpage_hwecc
                0x86829a1c      0x18c drivers/mtd/nand/built-in.o
 .text.nand_fill_oob
                0x86829ba8      0x114 drivers/mtd/nand/built-in.o
 .text.nand_do_write_oob
                0x86829cbc      0x1a8 drivers/mtd/nand/built-in.o
 .text.nand_default_block_markbad
                0x86829e64       0xd4 drivers/mtd/nand/built-in.o
 .text.nand_do_write_ops
                0x86829f38      0x380 drivers/mtd/nand/built-in.o
 .text.nand_write_oob
                0x8682a2b8       0xa4 drivers/mtd/nand/built-in.o
 .text.nand_write
                0x8682a35c       0x64 drivers/mtd/nand/built-in.o
 .text.nand_wait
                0x8682a3c0       0xe0 drivers/mtd/nand/built-in.o
 .text.unlikely.sanitize_string
                0x8682a4a0       0x38 drivers/mtd/nand/built-in.o
 .text.generic_ffs
                0x8682a4d8       0x50 drivers/mtd/nand/built-in.o
 .text.unlikely.generic_fls
                0x8682a528       0x54 drivers/mtd/nand/built-in.o
 .text.nand_read_page_raw
                0x8682a57c       0x44 drivers/mtd/nand/built-in.o
 .text.nand_write_page_raw
                0x8682a5c0       0x44 drivers/mtd/nand/built-in.o
 .text.nand_onfi_set_features
                0x8682a604       0x7c drivers/mtd/nand/built-in.o
 .text.nand_onfi_get_features
                0x8682a680       0x80 drivers/mtd/nand/built-in.o
 .text.nand_select_chip
                0x8682a700       0x50 drivers/mtd/nand/built-in.o
 .text.nand_transfer_oob
                0x8682a750      0x100 drivers/mtd/nand/built-in.o
 .text.onfi_crc16.constprop.20
                0x8682a850       0x50 drivers/mtd/nand/built-in.o
 .text.panic_nand_write
                0x8682a8a0       0xb8 drivers/mtd/nand/built-in.o
 .text.nand_wait_ready
                0x8682a958       0x4c drivers/mtd/nand/built-in.o
                0x8682a958                nand_wait_ready
 .text.nand_command
                0x8682a9a4      0x1f8 drivers/mtd/nand/built-in.o
 .text.nand_command_lp
                0x8682ab9c      0x270 drivers/mtd/nand/built-in.o
 .text.nand_do_read_ops
                0x8682ae0c      0x4b0 drivers/mtd/nand/built-in.o
 .text.nand_read_oob
                0x8682b2bc      0x298 drivers/mtd/nand/built-in.o
 .text.nand_read
                0x8682b554       0x64 drivers/mtd/nand/built-in.o
 .text.nand_erase_nand
                0x8682b5b8      0x294 drivers/mtd/nand/built-in.o
                0x8682b5b8                nand_erase_nand
 .text.nand_block_markbad
                0x8682b84c       0xe4 drivers/mtd/nand/built-in.o
 .text.nand_erase
                0x8682b930        0x8 drivers/mtd/nand/built-in.o
 .text.nand_scan_ident
                0x8682b938      0xe28 drivers/mtd/nand/built-in.o
                0x8682b938                nand_scan_ident
 .text.nand_scan_tail
                0x8682c760      0x5e0 drivers/mtd/nand/built-in.o
                0x8682c760                nand_scan_tail
 .text.nand_scan
                0x8682cd40       0x24 drivers/mtd/nand/built-in.o
                0x8682cd40                nand_scan
 .text.mxs_nand_device_ready
                0x8682cd64       0x28 drivers/mtd/nand/built-in.o
 .text.mxs_nand_select_chip
                0x8682cd8c       0x10 drivers/mtd/nand/built-in.o
 .text.mxs_nand_hook_read_oob
                0x8682cd9c       0x50 drivers/mtd/nand/built-in.o
 .text.mxs_nand_hook_write_oob
                0x8682cdec       0x50 drivers/mtd/nand/built-in.o
 .text.mxs_nand_hook_block_markbad
                0x8682ce3c       0x28 drivers/mtd/nand/built-in.o
 .text.mxs_nand_block_bad
                0x8682ce64        0x8 drivers/mtd/nand/built-in.o
 .text.mxs_nand_ecc_write_oob
                0x8682ce6c       0x98 drivers/mtd/nand/built-in.o
 .text.mxs_nand_get_dma_desc
                0x8682cf04       0x3c drivers/mtd/nand/built-in.o
 .text.mxs_nand_return_dma_descs
                0x8682cf40       0x48 drivers/mtd/nand/built-in.o
 .text.mxs_nand_inval_data_buf
                0x8682cf88       0x14 drivers/mtd/nand/built-in.o
 .text.mxs_nand_read_buf
                0x8682cf9c       0xf8 drivers/mtd/nand/built-in.o
 .text.mxs_nand_read_byte
                0x8682d094       0x1c drivers/mtd/nand/built-in.o
 .text.mxs_nand_cmd_ctrl
                0x8682d0b0       0xd4 drivers/mtd/nand/built-in.o
 .text.mxs_nand_ecc_read_oob
                0x8682d184       0x8c drivers/mtd/nand/built-in.o
 .text.mxs_nand_scan_bbt
                0x8682d210      0x2b8 drivers/mtd/nand/built-in.o
 .text.mxs_nand_swap_block_mark
                0x8682d4c8      0x110 drivers/mtd/nand/built-in.o
 .text.mxs_nand_ecc_read_page
                0x8682d5d8      0x44c drivers/mtd/nand/built-in.o
 .text.mxs_nand_write_buf
                0x8682da24       0xb8 drivers/mtd/nand/built-in.o
 .text.mxs_nand_ecc_write_page
                0x8682dadc      0x110 drivers/mtd/nand/built-in.o
 .text.mxs_nand_alloc_buffers
                0x8682dbec       0x90 drivers/mtd/nand/built-in.o
                0x8682dbec                mxs_nand_alloc_buffers
 .text.mxs_nand_init
                0x8682dc7c       0xf4 drivers/mtd/nand/built-in.o
                0x8682dc7c                mxs_nand_init
 .text.board_nand_init
                0x8682dd70      0x158 drivers/mtd/nand/built-in.o
                0x8682dd70                board_nand_init
 .text.add_to_list
                0x8682dec8       0xd4 drivers/mtd/ubi/built-in.o
 .text.destroy_ai
                0x8682df9c      0x218 drivers/mtd/ubi/built-in.o
 .text.validate_vid_hdr.isra.5
                0x8682e1b4       0xd8 drivers/mtd/ubi/built-in.o
 .text.ubi_compare_lebs
                0x8682e28c      0x1fc drivers/mtd/ubi/built-in.o
                0x8682e28c                ubi_compare_lebs
 .text.ubi_add_to_av
                0x8682e488      0x450 drivers/mtd/ubi/built-in.o
                0x8682e488                ubi_add_to_av
 .text.ubi_find_av
                0x8682e8d8       0x34 drivers/mtd/ubi/built-in.o
                0x8682e8d8                ubi_find_av
 .text.ubi_remove_av
                0x8682e90c       0x68 drivers/mtd/ubi/built-in.o
                0x8682e90c                ubi_remove_av
 .text.ubi_early_get_peb
                0x8682e974      0x198 drivers/mtd/ubi/built-in.o
                0x8682e974                ubi_early_get_peb
 .text.ubi_attach
                0x8682eb0c      0xecc drivers/mtd/ubi/built-in.o
                0x8682eb0c                ubi_attach
 .text.kill_volumes
                0x8682f9d8       0x3c drivers/mtd/ubi/built-in.o
 .text.ubi_volume_notify
                0x8682fa14       0x34 drivers/mtd/ubi/built-in.o
                0x8682fa14                ubi_volume_notify
 .text.ubi_notify_all
                0x8682fa48       0x5c drivers/mtd/ubi/built-in.o
                0x8682fa48                ubi_notify_all
 .text.ubi_get_device
                0x8682faa4       0x20 drivers/mtd/ubi/built-in.o
                0x8682faa4                ubi_get_device
 .text.ubi_put_device
                0x8682fac4       0x10 drivers/mtd/ubi/built-in.o
                0x8682fac4                ubi_put_device
 .text.ubi_free_internal_volumes
                0x8682fad4       0x40 drivers/mtd/ubi/built-in.o
                0x8682fad4                ubi_free_internal_volumes
 .text.ubi_attach_mtd_dev
                0x8682fb14      0x6e8 drivers/mtd/ubi/built-in.o
                0x8682fb14                ubi_attach_mtd_dev
 .text.ubi_detach_mtd_dev
                0x868301fc       0xe4 drivers/mtd/ubi/built-in.o
                0x868301fc                ubi_detach_mtd_dev
 .text.ubi_init
                0x868302e0      0x15c drivers/mtd/ubi/built-in.o
                0x868302e0                ubi_init
 .text.ubi_exit
                0x8683043c       0x5c drivers/mtd/ubi/built-in.o
                0x8683043c                ubi_exit
 .text.kstrtoint
                0x86830498       0x24 drivers/mtd/ubi/built-in.o
                0x86830498                kstrtoint
 .text.ubi_mtd_param_parse
                0x868304bc      0x1dc drivers/mtd/ubi/built-in.o
                0x868304bc                ubi_mtd_param_parse
 .text.vtbl_check
                0x86830698      0x2b0 drivers/mtd/ubi/built-in.o
 .text.create_vtbl
                0x86830948      0x1fc drivers/mtd/ubi/built-in.o
 .text.ubi_change_vtbl_record
                0x86830b44      0x110 drivers/mtd/ubi/built-in.o
                0x86830b44                ubi_change_vtbl_record
 .text.ubi_read_volume_table
                0x86830c54      0x6d4 drivers/mtd/ubi/built-in.o
                0x86830c54                ubi_read_volume_table
 .text.vol_release
                0x86831328       0x1c drivers/mtd/ubi/built-in.o
 .text.self_check_volumes
                0x86831344      0x330 drivers/mtd/ubi/built-in.o
 .text.ubi_create_volume
                0x86831674      0x48c drivers/mtd/ubi/built-in.o
                0x86831674                ubi_create_volume
 .text.ubi_resize_volume
                0x86831b00      0x230 drivers/mtd/ubi/built-in.o
                0x86831b00                ubi_resize_volume
 .text.ubi_add_volume
                0x86831d30       0x40 drivers/mtd/ubi/built-in.o
                0x86831d30                ubi_add_volume
 .text.ubi_free_volume
                0x86831d70       0x18 drivers/mtd/ubi/built-in.o
                0x86831d70                ubi_free_volume
 .text.clear_update_marker
                0x86831d88       0xe4 drivers/mtd/ubi/built-in.o
 .text.write_leb
                0x86831e6c       0xb8 drivers/mtd/ubi/built-in.o
 .text.ubi_start_update
                0x86831f24      0x174 drivers/mtd/ubi/built-in.o
                0x86831f24                ubi_start_update
 .text.ubi_more_update_data
                0x86832098      0x27c drivers/mtd/ubi/built-in.o
                0x86832098                ubi_more_update_data
 .text.ubi_do_get_device_info
                0x86832314       0x34 drivers/mtd/ubi/built-in.o
                0x86832314                ubi_do_get_device_info
 .text.ubi_get_device_info
                0x86832348       0x44 drivers/mtd/ubi/built-in.o
                0x86832348                ubi_get_device_info
 .text.ubi_do_get_volume_info
                0x8683238c       0x70 drivers/mtd/ubi/built-in.o
                0x8683238c                ubi_do_get_volume_info
 .text.ubi_get_volume_info
                0x868323fc       0x14 drivers/mtd/ubi/built-in.o
                0x868323fc                ubi_get_volume_info
 .text.ubi_close_volume
                0x86832410       0x60 drivers/mtd/ubi/built-in.o
                0x86832410                ubi_close_volume
 .text.ubi_open_volume
                0x86832470      0x184 drivers/mtd/ubi/built-in.o
                0x86832470                ubi_open_volume
 .text.ubi_open_volume_nm
                0x868325f4       0xdc drivers/mtd/ubi/built-in.o
                0x868325f4                ubi_open_volume_nm
 .text.ubi_leb_read
                0x868326d0       0xf8 drivers/mtd/ubi/built-in.o
                0x868326d0                ubi_leb_read
 .text.ubi_leb_unmap
                0x868327c8       0x68 drivers/mtd/ubi/built-in.o
                0x868327c8                ubi_leb_unmap
 .text.ubi_is_mapped
                0x86832830       0x48 drivers/mtd/ubi/built-in.o
                0x86832830                ubi_is_mapped
 .text.ltree_lookup.isra.5
                0x86832878       0x3c drivers/mtd/ubi/built-in.o
 .text.ltree_add_entry
                0x868328b4       0xd0 drivers/mtd/ubi/built-in.o
 .text.leb_write_unlock
                0x86832984       0x3c drivers/mtd/ubi/built-in.o
 .text.leb_read_unlock
                0x868329c0       0x3c drivers/mtd/ubi/built-in.o
 .text.is_error_sane
                0x868329fc       0x30 drivers/mtd/ubi/built-in.o
 .text.ubi_eba_unmap_leb
                0x86832a2c       0x8c drivers/mtd/ubi/built-in.o
                0x86832a2c                ubi_eba_unmap_leb
 .text.ubi_eba_read_leb
                0x86832ab8      0x234 drivers/mtd/ubi/built-in.o
                0x86832ab8                ubi_eba_read_leb
 .text.ubi_eba_write_leb
                0x86832cec      0x610 drivers/mtd/ubi/built-in.o
                0x86832cec                ubi_eba_write_leb
 .text.ubi_eba_write_leb_st
                0x868332fc      0x394 drivers/mtd/ubi/built-in.o
                0x868332fc                ubi_eba_write_leb_st
 .text.ubi_eba_copy_leb
                0x86833690      0x380 drivers/mtd/ubi/built-in.o
                0x86833690                ubi_eba_copy_leb
 .text.ubi_eba_init
                0x86833a10      0x20c drivers/mtd/ubi/built-in.o
                0x86833a10                ubi_eba_init
 .text.erase_callback
                0x86833c1c        0x4 drivers/mtd/ubi/built-in.o
 .text.validate_ec_hdr
                0x86833c20       0xd4 drivers/mtd/ubi/built-in.o
 .text.self_check_ec_hdr.isra.1.part.2
                0x86833cf4       0x54 drivers/mtd/ubi/built-in.o
 .text.validate_vid_hdr.isra.3
                0x86833d48      0x1e8 drivers/mtd/ubi/built-in.o
 .text.self_check_vid_hdr.isra.4.part.5
                0x86833f30       0x58 drivers/mtd/ubi/built-in.o
 .text.ubi_io_is_bad
                0x86833f88       0x28 drivers/mtd/ubi/built-in.o
                0x86833f88                ubi_io_is_bad
 .text.self_check_not_bad.part.6
                0x86833fb0       0x18 drivers/mtd/ubi/built-in.o
 .text.ubi_io_read
                0x86833fc8       0xe4 drivers/mtd/ubi/built-in.o
                0x86833fc8                ubi_io_read
 .text.self_check_peb_ec_hdr.part.8
                0x868340ac       0xe0 drivers/mtd/ubi/built-in.o
 .text.ubi_io_mark_bad
                0x8683418c       0x38 drivers/mtd/ubi/built-in.o
                0x8683418c                ubi_io_mark_bad
 .text.ubi_io_read_ec_hdr
                0x868341c4      0x150 drivers/mtd/ubi/built-in.o
                0x868341c4                ubi_io_read_ec_hdr
 .text.ubi_io_read_vid_hdr
                0x86834314      0x154 drivers/mtd/ubi/built-in.o
                0x86834314                ubi_io_read_vid_hdr
 .text.ubi_self_check_all_ff
                0x86834468       0xc8 drivers/mtd/ubi/built-in.o
                0x86834468                ubi_self_check_all_ff
 .text.ubi_io_write
                0x86834530      0x350 drivers/mtd/ubi/built-in.o
                0x86834530                ubi_io_write
 .text.ubi_io_write_ec_hdr
                0x86834880      0x11c drivers/mtd/ubi/built-in.o
                0x86834880                ubi_io_write_ec_hdr
 .text.ubi_io_write_vid_hdr
                0x8683499c       0xd0 drivers/mtd/ubi/built-in.o
                0x8683499c                ubi_io_write_vid_hdr
 .text.do_sync_erase
                0x86834a6c      0x130 drivers/mtd/ubi/built-in.o
 .text.ubi_io_sync_erase
                0x86834b9c      0x29c drivers/mtd/ubi/built-in.o
                0x86834b9c                ubi_io_sync_erase
 .text.do_work  0x86834e38       0x48 drivers/mtd/ubi/built-in.o
 .text.in_wl_tree
                0x86834e80       0x5c drivers/mtd/ubi/built-in.o
 .text.cancel_pending
                0x86834edc       0x58 drivers/mtd/ubi/built-in.o
 .text.prot_queue_del
                0x86834f34       0x78 drivers/mtd/ubi/built-in.o
 .text.find_wl_entry
                0x86834fac       0x84 drivers/mtd/ubi/built-in.o
 .text.tree_destroy
                0x86835030       0x58 drivers/mtd/ubi/built-in.o
 .text.wl_tree_add
                0x86835088       0x60 drivers/mtd/ubi/built-in.o
 .text.self_check_in_wl_tree
                0x868350e8       0x30 drivers/mtd/ubi/built-in.o
 .text.get_peb_for_wl
                0x86835118       0x50 drivers/mtd/ubi/built-in.o
 .text.schedule_erase
                0x86835168       0x88 drivers/mtd/ubi/built-in.o
 .text.ensure_wear_leveling
                0x868351f0       0xf4 drivers/mtd/ubi/built-in.o
 .text.erase_worker
                0x868352e4      0x418 drivers/mtd/ubi/built-in.o
 .text.wear_leveling_worker
                0x868356fc      0x408 drivers/mtd/ubi/built-in.o
 .text.ubi_wl_get_peb
                0x86835b04      0x128 drivers/mtd/ubi/built-in.o
                0x86835b04                ubi_wl_get_peb
 .text.ubi_wl_put_peb
                0x86835c2c      0x154 drivers/mtd/ubi/built-in.o
                0x86835c2c                ubi_wl_put_peb
 .text.ubi_wl_scrub_peb
                0x86835d80       0xf8 drivers/mtd/ubi/built-in.o
                0x86835d80                ubi_wl_scrub_peb
 .text.ubi_wl_flush
                0x86835e78       0x9c drivers/mtd/ubi/built-in.o
                0x86835e78                ubi_wl_flush
 .text.ubi_wl_init
                0x86835f14      0x2c0 drivers/mtd/ubi/built-in.o
                0x86835f14                ubi_wl_init
 .text.ubi_wl_close
                0x868361d4       0x94 drivers/mtd/ubi/built-in.o
                0x868361d4                ubi_wl_close
 .text.crc32_le
                0x86836268       0xd8 drivers/mtd/ubi/built-in.o
                0x86836268                crc32_le
 .text.ubi_calc_data_len
                0x86836340       0x2c drivers/mtd/ubi/built-in.o
                0x86836340                ubi_calc_data_len
 .text.ubi_check_volume
                0x8683636c       0xb8 drivers/mtd/ubi/built-in.o
                0x8683636c                ubi_check_volume
 .text.ubi_update_reserved
                0x86836424       0x50 drivers/mtd/ubi/built-in.o
                0x86836424                ubi_update_reserved
 .text.ubi_calculate_reserved
                0x86836474       0x18 drivers/mtd/ubi/built-in.o
                0x86836474                ubi_calculate_reserved
 .text.ubi_check_pattern
                0x8683648c       0x2c drivers/mtd/ubi/built-in.o
                0x8683648c                ubi_check_pattern
 .text.ubi_dump_flash
                0x868364b8       0x90 drivers/mtd/ubi/built-in.o
                0x868364b8                ubi_dump_flash
 .text.ubi_dump_ec_hdr
                0x86836548        0x4 drivers/mtd/ubi/built-in.o
                0x86836548                ubi_dump_ec_hdr
 .text.ubi_dump_vid_hdr
                0x8683654c        0x4 drivers/mtd/ubi/built-in.o
                0x8683654c                ubi_dump_vid_hdr
 .text.ubi_dump_vol_info
                0x86836550      0x14c drivers/mtd/ubi/built-in.o
                0x86836550                ubi_dump_vol_info
 .text.ubi_dump_vtbl_record
                0x8683669c       0x40 drivers/mtd/ubi/built-in.o
                0x8683669c                ubi_dump_vtbl_record
 .text.ubi_dump_av
                0x868366dc        0x4 drivers/mtd/ubi/built-in.o
                0x868366dc                ubi_dump_av
 .text.ubi_dump_aeb
                0x868366e0        0x4 drivers/mtd/ubi/built-in.o
                0x868366e0                ubi_dump_aeb
 .text.ubi_debugfs_init
                0x868366e4        0x8 drivers/mtd/ubi/built-in.o
                0x868366e4                ubi_debugfs_init
 .text.ubi_debugfs_exit
                0x868366ec        0x4 drivers/mtd/ubi/built-in.o
                0x868366ec                ubi_debugfs_exit
 .text.ubi_debugfs_init_dev
                0x868366f0        0x8 drivers/mtd/ubi/built-in.o
                0x868366f0                ubi_debugfs_init_dev
 .text.ubi_debugfs_exit_dev
                0x868366f8        0x4 drivers/mtd/ubi/built-in.o
                0x868366f8                ubi_debugfs_exit_dev
 .text.fec_set_hwaddr
                0x868366fc       0x78 drivers/net/built-in.o
 .text.fec_reg_setup
                0x86836774       0x64 drivers/net/built-in.o
 .text.fec_phy_write
                0x868367d8       0x74 drivers/net/built-in.o
 .text.fec_phy_read
                0x8683684c       0x7c drivers/net/built-in.o
 .text.fec_halt
                0x868368c8       0x68 drivers/net/built-in.o
 .text.fec_send
                0x86836930      0x130 drivers/net/built-in.o
 .text.fec_mii_setspeed
                0x86836a60       0x60 drivers/net/built-in.o
 .text.fec_init
                0x86836ac0      0x240 drivers/net/built-in.o
 .text.fec_recv
                0x86836d00      0x200 drivers/net/built-in.o
 .text.fec_probe
                0x86836f00      0x37c drivers/net/built-in.o
                0x86836f00                fec_probe
 .text.fec_get_miibus
                0x8683727c       0xa4 drivers/net/built-in.o
                0x8683727c                fec_get_miibus
 .text.fecmxc_initialize_multi
                0x86837320       0x90 drivers/net/built-in.o
                0x86837320                fecmxc_initialize_multi
 .text.fecmxc_initialize
                0x868373b0       0x14 drivers/net/built-in.o
                0x868373b0                fecmxc_initialize
 .text.genphy_shutdown
                0x868373c4        0x8 drivers/net/phy/built-in.o
                0x868373c4                genphy_shutdown
 .text.generic_ffs
                0x868373cc       0x50 drivers/net/phy/built-in.o
 .text.phy_device_create
                0x8683741c       0xe4 drivers/net/phy/built-in.o
 .text.get_phy_device_by_mask
                0x86837500      0x148 drivers/net/phy/built-in.o
 .text.genphy_restart_aneg
                0x86837648       0x5c drivers/net/phy/built-in.o
                0x86837648                genphy_restart_aneg
 .text.genphy_config_aneg
                0x868376a4      0x1dc drivers/net/phy/built-in.o
                0x868376a4                genphy_config_aneg
 .text.genphy_config
                0x86837880       0xb4 drivers/net/phy/built-in.o
                0x86837880                genphy_config
 .text.genphy_update_link
                0x86837934      0x140 drivers/net/phy/built-in.o
                0x86837934                genphy_update_link
 .text.genphy_parse_link
                0x86837a74      0x194 drivers/net/phy/built-in.o
                0x86837a74                genphy_parse_link
 .text.genphy_startup
                0x86837c08       0x1c drivers/net/phy/built-in.o
                0x86837c08                genphy_startup
 .text.phy_init
                0x86837c24       0x10 drivers/net/phy/built-in.o
                0x86837c24                phy_init
 .text.phy_register
                0x86837c34       0x28 drivers/net/phy/built-in.o
                0x86837c34                phy_register
 .text.phy_reset
                0x86837c5c       0xb0 drivers/net/phy/built-in.o
                0x86837c5c                phy_reset
 .text.phy_find_by_mask
                0x86837d0c       0x3c drivers/net/phy/built-in.o
                0x86837d0c                phy_find_by_mask
 .text.phy_connect_dev
                0x86837d48       0x44 drivers/net/phy/built-in.o
                0x86837d48                phy_connect_dev
 .text.phy_startup
                0x86837d8c       0x1c drivers/net/phy/built-in.o
                0x86837d8c                phy_startup
 .text.phy_config
                0x86837da8       0x10 drivers/net/phy/built-in.o
                0x86837da8                phy_config
 .text.ksz8895_startup
                0x86837db8        0x8 drivers/net/phy/built-in.o
 .text.ksz90xx_startup
                0x86837dc0       0x60 drivers/net/phy/built-in.o
 .text.ksz8895_config
                0x86837e20       0x3c drivers/net/phy/built-in.o
                0x86837e20                ksz8895_config
 .text.ksz9031_phy_extended_write
                0x86837e5c       0xa0 drivers/net/phy/built-in.o
                0x86837e5c                ksz9031_phy_extended_write
 .text.ksz9031_phy_extwrite
                0x86837efc       0x18 drivers/net/phy/built-in.o
 .text.ksz9031_phy_extended_read
                0x86837f14       0x98 drivers/net/phy/built-in.o
                0x86837f14                ksz9031_phy_extended_read
 .text.ksz9031_phy_extread
                0x86837fac       0x10 drivers/net/phy/built-in.o
 .text.phy_micrel_init
                0x86837fbc       0x3c drivers/net/phy/built-in.o
                0x86837fbc                phy_micrel_init
 .text.serial_stub_start
                0x86837ff8        0xc drivers/serial/built-in.o
 .text.serial_stub_stop
                0x86838004        0xc drivers/serial/built-in.o
 .text.serial_stub_putc
                0x86838010       0x10 drivers/serial/built-in.o
 .text.serial_stub_puts
                0x86838020       0x10 drivers/serial/built-in.o
 .text.serial_stub_getc
                0x86838030        0xc drivers/serial/built-in.o
                0x86838030                serial_stub_getc
 .text.serial_stub_tstc
                0x8683803c        0xc drivers/serial/built-in.o
                0x8683803c                serial_stub_tstc
 .text.get_current
                0x86838048       0x40 drivers/serial/built-in.o
 .text.serial_null
                0x86838088        0x4 drivers/serial/built-in.o
                0x86838088                jz_serial_initialize
                0x86838088                bfin_serial_initialize
                0x86838088                p3mx_serial_initialize
                0x86838088                leon2_serial_initialize
                0x86838088                leon3_serial_initialize
                0x86838088                amirix_serial_initialize
                0x86838088                marvell_serial_initialize
                0x86838088                cpci750_serial_initialize
                0x86838088                ns16550_serial_initialize
                0x86838088                asc_serial_initialize
                0x86838088                altera_serial_initialize
                0x86838088                oc_serial_initialize
                0x86838088                sh_serial_initialize
                0x86838088                mxs_auart_initialize
                0x86838088                arm_dcc_initialize
                0x86838088                bmw_serial_initialize
                0x86838088                arc_serial_initialize
                0x86838088                mcf_serial_initialize
                0x86838088                lh7a40x_serial_initialize
                0x86838088                evb64260_serial_initialize
                0x86838088                lpc32xx_serial_initialize
                0x86838088                max3100_serial_initialize
                0x86838088                mpc85xx_serial_initialize
                0x86838088                imx_serial_initialize
                0x86838088                bfin_jtag_initialize
                0x86838088                cogent_serial_initialize
                0x86838088                clps7111_serial_initialize
                0x86838088                ml2_serial_initialize
                0x86838088                sandbox_serial_initialize
                0x86838088                s3c24xx_serial_initialize
                0x86838088                sconsole_serial_initialize
                0x86838088                uartlite_serial_initialize
                0x86838088                au1x00_serial_initialize
                0x86838088                pxa_serial_initialize
                0x86838088                atmel_serial_initialize
                0x86838088                pl01x_serial_initialize
                0x86838088                altera_jtag_serial_initialize
                0x86838088                mpc512x_serial_initialize
                0x86838088                s5p_serial_initialize
                0x86838088                zynq_serial_initialize
                0x86838088                sa1100_serial_initialize
                0x86838088                mpc8260_scc_serial_initialize
                0x86838088                iop480_serial_initialize
                0x86838088                mpc8xx_serial_initialize
                0x86838088                mpc8260_smc_serial_initialize
                0x86838088                mpc5xx_serial_initialize
 .text.serial_register
                0x8683808c       0x18 drivers/serial/built-in.o
                0x8683808c                serial_register
 .text.serial_stdio_init
                0x868380a4       0xa4 drivers/serial/built-in.o
                0x868380a4                serial_stdio_init
 .text.serial_assign
                0x86838148       0x4c drivers/serial/built-in.o
                0x86838148                serial_assign
 .text.serial_initialize
                0x86838194       0xcc drivers/serial/built-in.o
                0x86838194                serial_initialize
 .text.serial_init
                0x86838260       0x20 drivers/serial/built-in.o
                0x86838260                serial_init
 .text.serial_setbrg
                0x86838280       0x14 drivers/serial/built-in.o
                0x86838280                serial_setbrg
 .text.on_baudrate
                0x86838294       0xec drivers/serial/built-in.o
 .text.serial_getc
                0x86838380       0x14 drivers/serial/built-in.o
                0x86838380                serial_getc
 .text.serial_tstc
                0x86838394       0x14 drivers/serial/built-in.o
                0x86838394                serial_tstc
 .text.serial_putc
                0x868383a8       0x1c drivers/serial/built-in.o
                0x868383a8                serial_putc
 .text.serial_puts
                0x868383c4       0x1c drivers/serial/built-in.o
                0x868383c4                serial_puts
 .text.default_serial_puts
                0x868383e0       0x30 drivers/serial/built-in.o
                0x868383e0                default_serial_puts
 .text.mxc_serial_tstc
                0x86838410       0x18 drivers/serial/built-in.o
 .text.mxc_serial_getc
                0x86838428       0x30 drivers/serial/built-in.o
 .text.mxc_serial_putc
                0x86838458       0x40 drivers/serial/built-in.o
 .text.mxc_serial_setbrg
                0x86838498       0x48 drivers/serial/built-in.o
 .text.mxc_serial_init
                0x868384e0       0x68 drivers/serial/built-in.o
 .text.mxc_serial_initialize
                0x86838548        0xc drivers/serial/built-in.o
                0x86838548                mxc_serial_initialize
 .text.default_serial_console
                0x86838554        0xc drivers/serial/built-in.o
                0x86838554                default_serial_console
 .text.usb_host_eth_scan
                0x86838560      0x1a8 drivers/usb/eth/built-in.o
                0x86838560                usb_host_eth_scan
 .text.asix_halt
                0x86838708        0x4 drivers/usb/eth/built-in.o
 .text.asix_send
                0x8683870c       0x98 drivers/usb/eth/built-in.o
 .text.asix_recv
                0x868387a4      0x110 drivers/usb/eth/built-in.o
 .text.asix_write_cmd.isra.0
                0x868388b4       0x4c drivers/usb/eth/built-in.o
 .text.asix_write_hwaddr
                0x86838900       0x4c drivers/usb/eth/built-in.o
 .text.asix_mdio_write
                0x8683894c       0x84 drivers/usb/eth/built-in.o
 .text.asix_sw_reset
                0x868389d0       0x40 drivers/usb/eth/built-in.o
 .text.asix_read_cmd.isra.1
                0x86838a10       0x50 drivers/usb/eth/built-in.o
 .text.asix_mdio_read
                0x86838a60       0x84 drivers/usb/eth/built-in.o
 .text.asix_init
                0x86838ae4       0xc0 drivers/usb/eth/built-in.o
 .text.asix_read_rx_ctl
                0x86838ba4       0x44 drivers/usb/eth/built-in.o
 .text.asix_eth_before_probe
                0x86838be8       0x14 drivers/usb/eth/built-in.o
                0x86838be8                asix_eth_before_probe
 .text.asix_eth_probe
                0x86838bfc      0x188 drivers/usb/eth/built-in.o
                0x86838bfc                asix_eth_probe
 .text.asix_eth_get_info
                0x86838d84      0x354 drivers/usb/eth/built-in.o
                0x86838d84                asix_eth_get_info
 .text.handshake
                0x868390d8       0x50 drivers/usb/host/built-in.o
 .text.ehci_shutdown
                0x86839128       0xa0 drivers/usb/host/built-in.o
 .text.ehci_td_buffer
                0x868391c8       0x80 drivers/usb/host/built-in.o
 .text.ehci_update_endpt2_dev_n_port.isra.0.part.1
                0x86839248       0x44 drivers/usb/host/built-in.o
 .text.ehci_submit_async
                0x8683928c      0x590 drivers/usb/host/built-in.o
 .text.disable_periodic.isra.2
                0x8683981c       0x48 drivers/usb/host/built-in.o
 .text.enable_periodic.isra.3
                0x86839864       0x50 drivers/usb/host/built-in.o
 .text.ehci_powerup_fixup
                0x868398b4        0x8 drivers/usb/host/built-in.o
                0x868398b4                ehci_powerup_fixup
 .text.ehci_get_portsc_register
                0x868398bc       0x14 drivers/usb/host/built-in.o
                0x868398bc                ehci_get_portsc_register
 .text.ehci_submit_root
                0x868398d0      0x4b0 drivers/usb/host/built-in.o
                0x868398d0                ehci_submit_root
 .text.usb_lowlevel_stop
                0x86839d80       0x28 drivers/usb/host/built-in.o
                0x86839d80                usb_lowlevel_stop
 .text.usb_lowlevel_init
                0x86839da8      0x290 drivers/usb/host/built-in.o
                0x86839da8                usb_lowlevel_init
 .text.submit_bulk_msg
                0x8683a038       0x28 drivers/usb/host/built-in.o
                0x8683a038                submit_bulk_msg
 .text.submit_control_msg
                0x8683a060       0x60 drivers/usb/host/built-in.o
                0x8683a060                submit_control_msg
 .text.create_int_queue
                0x8683a0c0      0x358 drivers/usb/host/built-in.o
                0x8683a0c0                create_int_queue
 .text.poll_int_queue
                0x8683a418       0x88 drivers/usb/host/built-in.o
                0x8683a418                poll_int_queue
 .text.destroy_int_queue
                0x8683a4a0       0xdc drivers/usb/host/built-in.o
                0x8683a4a0                destroy_int_queue
 .text.submit_int_msg
                0x8683a57c       0xac drivers/usb/host/built-in.o
                0x8683a57c                submit_int_msg
 .text.usb_phy_mode
                0x8683a628       0x18 drivers/usb/host/built-in.o
                0x8683a628                usb_phy_mode
 .text.board_ehci_power
                0x8683a640        0x8 drivers/usb/host/built-in.o
                0x8683a640                board_ehci_power
 .text.ehci_hcd_init
                0x8683a648      0x1e0 drivers/usb/host/built-in.o
                0x8683a648                ehci_hcd_init
 .text.ehci_hcd_stop
                0x8683a828        0x8 drivers/usb/host/built-in.o
                0x8683a828                ehci_hcd_stop
 .text.fs_probe_unsupported
                0x8683a830       0x18 fs/built-in.o
 .text.fs_ls_unsupported
                0x8683a848        0x8 fs/built-in.o
 .text.fs_exists_unsupported
                0x8683a850        0x8 fs/built-in.o
 .text.fs_size_unsupported
                0x8683a858        0x8 fs/built-in.o
 .text.fs_read_unsupported
                0x8683a860        0x8 fs/built-in.o
 .text.fs_write_unsupported
                0x8683a868        0x8 fs/built-in.o
 .text.fs_close_unsupported
                0x8683a870        0x4 fs/built-in.o
 .text.fs_uuid_unsupported
                0x8683a874        0x8 fs/built-in.o
 .text.fs_get_info
                0x8683a87c       0x20 fs/built-in.o
 .text.fs_close
                0x8683a89c       0x28 fs/built-in.o
 .text.fs_set_blk_dev
                0x8683a8c4       0xb4 fs/built-in.o
                0x8683a8c4                fs_set_blk_dev
 .text.fs_ls    0x8683a978       0x3c fs/built-in.o
                0x8683a978                fs_ls
 .text.fs_exists
                0x8683a9b4       0x34 fs/built-in.o
                0x8683a9b4                fs_exists
 .text.fs_size  0x8683a9e8       0x3c fs/built-in.o
                0x8683a9e8                fs_size
 .text.fs_read  0x8683aa24       0xa8 fs/built-in.o
                0x8683aa24                fs_read
 .text.do_size  0x8683aacc       0x60 fs/built-in.o
                0x8683aacc                do_size
 .text.do_load  0x8683ab2c      0x238 fs/built-in.o
                0x8683ab2c                do_load
 .text.do_ls    0x8683ad64       0x68 fs/built-in.o
                0x8683ad64                do_ls
 .text.file_exists
                0x8683adcc       0x2c fs/built-in.o
                0x8683adcc                file_exists
 .text.downcase
                0x8683adf8       0x30 fs/built-in.o
 .text.disk_read
                0x8683ae28       0x5c fs/built-in.o
 .text.dirdelim
                0x8683ae84       0x30 fs/built-in.o
 .text.get_fatent
                0x8683aeb4      0x150 fs/built-in.o
 .text.mkcksum  0x8683b004       0x50 fs/built-in.o
 .text.get_cluster
                0x8683b054      0x174 fs/built-in.o
 .text.get_name
                0x8683b1c8       0xac fs/built-in.o
 .text.read_bootsectandvi
                0x8683b274      0x128 fs/built-in.o
 .text.slot2str
                0x8683b39c       0xbc fs/built-in.o
 .text.get_vfatname
                0x8683b458      0x1b8 fs/built-in.o
 .text.fat_set_blk_dev
                0x8683b610       0xcc fs/built-in.o
                0x8683b610                fat_set_blk_dev
 .text.do_fat_read_at
                0x8683b6dc      0xc58 fs/built-in.o
                0x8683b6dc                do_fat_read_at
 .text.do_fat_read
                0x8683c334       0x3c fs/built-in.o
                0x8683c334                do_fat_read
 .text.file_fat_detectfs
                0x8683c370      0x148 fs/built-in.o
                0x8683c370                file_fat_detectfs
 .text.file_fat_ls
                0x8683c4b8       0x2c fs/built-in.o
                0x8683c4b8                file_fat_ls
 .text.fat_exists
                0x8683c4e4       0x44 fs/built-in.o
                0x8683c4e4                fat_exists
 .text.fat_size
                0x8683c528       0x38 fs/built-in.o
                0x8683c528                fat_size
 .text.file_fat_read_at
                0x8683c560       0x60 fs/built-in.o
                0x8683c560                file_fat_read_at
 .text.fat_read_file
                0x8683c5c0       0x48 fs/built-in.o
                0x8683c5c0                fat_read_file
 .text.fat_close
                0x8683c608        0x4 fs/built-in.o
                0x8683c608                fat_close
 .text.gzip_decompress
                0x8683c60c       0x2c fs/built-in.o
 .text.compr_init
                0x8683c638       0xa0 fs/built-in.o
 .text.ubifs_findfile
                0x8683c6d8      0x33c fs/built-in.o
 .text.kmemdup  0x8683ca14       0x34 fs/built-in.o
                0x8683ca14                kmemdup
 .text.ubifs_decompress
                0x8683ca48       0x88 fs/built-in.o
                0x8683ca48                ubifs_decompress
 .text.read_block
                0x8683cad0      0x120 fs/built-in.o
 .text.ubifs_compressors_init
                0x8683cbf0       0x3c fs/built-in.o
                0x8683cbf0                ubifs_compressors_init
 .text.ubifs_ls
                0x8683cc2c      0x4a0 fs/built-in.o
                0x8683cc2c                ubifs_ls
 .text.ubifs_load
                0x8683d0cc      0x30c fs/built-in.o
                0x8683d0cc                ubifs_load
 .text.ubifs_ro_mode
                0x8683d3d8       0x38 fs/built-in.o
                0x8683d3d8                ubifs_ro_mode
 .text.ubifs_leb_read
                0x8683d410       0x10 fs/built-in.o
                0x8683d410                ubifs_leb_read
 .text.ubifs_leb_unmap
                0x8683d420       0x44 fs/built-in.o
                0x8683d420                ubifs_leb_unmap
 .text.ubifs_is_mapped
                0x8683d464        0x8 fs/built-in.o
                0x8683d464                ubifs_is_mapped
 .text.ubifs_check_node
                0x8683d46c      0x140 fs/built-in.o
                0x8683d46c                ubifs_check_node
 .text.ubifs_pad
                0x8683d5ac       0xf4 fs/built-in.o
                0x8683d5ac                ubifs_pad
 .text.ubifs_wbuf_seek_nolock
                0x8683d6a0       0x5c fs/built-in.o
                0x8683d6a0                ubifs_wbuf_seek_nolock
 .text.ubifs_read_node
                0x8683d6fc       0xb4 fs/built-in.o
                0x8683d6fc                ubifs_read_node
 .text.ubifs_read_node_wbuf
                0x8683d7b0      0x120 fs/built-in.o
                0x8683d7b0                ubifs_read_node_wbuf
 .text.ubifs_wbuf_init
                0x8683d8d0       0xb4 fs/built-in.o
                0x8683d8d0                ubifs_wbuf_init
 .text.ubifs_dirty_inode
                0x8683d984       0x14 fs/built-in.o
 .text.sb_test  0x8683d998       0x24 fs/built-in.o
 .text.sb_set   0x8683d9bc        0xc fs/built-in.o
 .text.free_wbufs
                0x8683d9c8       0x64 fs/built-in.o
 .text.free_orphans
                0x8683da2c       0x8c fs/built-in.o
 .text.kill_ubifs_super
                0x8683dab8        0x8 fs/built-in.o
 .text.ubifs_alloc_inode
                0x8683dac0       0x38 fs/built-in.o
 .text.bud_wbuf_callback
                0x8683daf8       0x1c fs/built-in.o
 .text.iget_locked
                0x8683db14       0x4c fs/built-in.o
                0x8683db14                iget_locked
 .text.ubifs_iput
                0x8683db60       0x2c fs/built-in.o
                0x8683db60                ubifs_iput
 .text.iput     0x8683db8c       0x54 fs/built-in.o
                0x8683db8c                iput
 .text.clear_nlink
                0x8683dbe0       0x38 fs/built-in.o
                0x8683dbe0                clear_nlink
 .text.set_nlink
                0x8683dc18       0x44 fs/built-in.o
                0x8683dc18                set_nlink
 .text.ubifs_iget
                0x8683dc5c      0x420 fs/built-in.o
                0x8683dc5c                ubifs_iget
 .text.ubifs_umount
                0x8683e07c       0xb4 fs/built-in.o
                0x8683e07c                ubifs_umount
 .text.sget     0x8683e130       0xbc fs/built-in.o
                0x8683e130                sget
 .text.ubifs_mount
                0x8683e1ec      0xd6c fs/built-in.o
 .text.ubifs_init
                0x8683ef58       0x28 fs/built-in.o
                0x8683ef58                ubifs_init
 .text.uboot_ubifs_mount
                0x8683ef80       0x68 fs/built-in.o
                0x8683ef80                uboot_ubifs_mount
 .text.key_r5_hash
                0x8683efe8       0x40 fs/built-in.o
 .text.key_test_hash
                0x8683f028       0x40 fs/built-in.o
 .text.ubifs_read_sb_node
                0x8683f068       0x6c fs/built-in.o
                0x8683f068                ubifs_read_sb_node
 .text.ubifs_read_superblock
                0x8683f0d4      0x5f4 fs/built-in.o
                0x8683f0d4                ubifs_read_superblock
 .text.ubifs_read_master
                0x8683f6c8      0xc74 fs/built-in.o
                0x8683f6c8                ubifs_read_master
 .text.calc_nnode_num_from_parent
                0x8684033c       0x30 fs/built-in.o
 .text.validate_nnode
                0x8684036c       0xcc fs/built-in.o
 .text.update_cats
                0x86840438       0x40 fs/built-in.o
 .text.generic_fls
                0x86840478       0x54 fs/built-in.o
 .text.do_calc_lpt_geom
                0x868404cc      0x27c fs/built-in.o
 .text.calc_pnode_num_from_parent.isra.3
                0x86840748       0x38 fs/built-in.o
 .text.validate_pnode
                0x86840780       0xb0 fs/built-in.o
 .text.ubifs_calc_lpt_geom
                0x86840830       0x98 fs/built-in.o
                0x86840830                ubifs_calc_lpt_geom
 .text.ubifs_unpack_bits
                0x868408c8      0x140 fs/built-in.o
                0x868408c8                ubifs_unpack_bits
 .text.check_lpt_crc
                0x86840a08       0x50 fs/built-in.o
 .text.unpack_pnode
                0x86840a58       0xf0 fs/built-in.o
 .text.ubifs_add_lpt_dirt
                0x86840b48       0x30 fs/built-in.o
                0x86840b48                ubifs_add_lpt_dirt
 .text.ubifs_add_nnode_dirt
                0x86840b78       0x60 fs/built-in.o
                0x86840b78                ubifs_add_nnode_dirt
 .text.dirty_cow_nnode
                0x86840bd8      0x100 fs/built-in.o
 .text.ubifs_unpack_nnode
                0x86840cd8       0xc4 fs/built-in.o
                0x86840cd8                ubifs_unpack_nnode
 .text.ubifs_read_nnode
                0x86840d9c      0x144 fs/built-in.o
                0x86840d9c                ubifs_read_nnode
 .text.ubifs_get_nnode
                0x86840ee0       0x30 fs/built-in.o
                0x86840ee0                ubifs_get_nnode
 .text.ubifs_get_pnode
                0x86840f10      0x1c4 fs/built-in.o
                0x86840f10                ubifs_get_pnode
 .text.ubifs_lpt_lookup_dirty
                0x868410d4      0x20c fs/built-in.o
                0x868410d4                ubifs_lpt_lookup_dirty
 .text.ubifs_lpt_init
                0x868412e0      0x204 fs/built-in.o
                0x868412e0                ubifs_lpt_init
 .text.ubifs_lpt_free
                0x868414e4      0x1d0 fs/built-in.o
                0x868414e4                ubifs_lpt_free
 .text.ubifs_scan_a_node
                0x868416b4      0x14c fs/built-in.o
                0x868416b4                ubifs_scan_a_node
 .text.ubifs_start_scan
                0x86841800       0xa0 fs/built-in.o
                0x86841800                ubifs_start_scan
 .text.ubifs_end_scan
                0x868418a0       0x1c fs/built-in.o
                0x868418a0                ubifs_end_scan
 .text.ubifs_add_snod
                0x868418bc       0xec fs/built-in.o
                0x868418bc                ubifs_add_snod
 .text.ubifs_scanned_corruption
                0x868419a8        0x4 fs/built-in.o
                0x868419a8                ubifs_scanned_corruption
 .text.ubifs_scan_destroy
                0x868419ac       0x44 fs/built-in.o
                0x868419ac                ubifs_scan_destroy
 .text.ubifs_scan
                0x868419f0      0x184 fs/built-in.o
                0x868419f0                ubifs_scan
 .text.get_heap_comp_val
                0x86841b74       0x2c fs/built-in.o
 .text.move_up_lpt_heap.isra.7
                0x86841ba0       0x84 fs/built-in.o
 .text.adjust_lpt_heap.isra.8
                0x86841c24      0x1a0 fs/built-in.o
 .text.remove_from_lpt_heap.isra.10
                0x86841dc4       0x68 fs/built-in.o
 .text.ubifs_add_to_cat
                0x86841e2c      0x1b0 fs/built-in.o
                0x86841e2c                ubifs_add_to_cat
 .text.ubifs_replace_cat
                0x86841fdc       0x60 fs/built-in.o
                0x86841fdc                ubifs_replace_cat
 .text.ubifs_categorize_lprops
                0x8684203c       0x98 fs/built-in.o
                0x8684203c                ubifs_categorize_lprops
 .text.ubifs_calc_dark
                0x868420d4       0x24 fs/built-in.o
                0x868420d4                ubifs_calc_dark
 .text.ubifs_change_lp
                0x868420f8      0x36c fs/built-in.o
                0x868420f8                ubifs_change_lp
 .text.ubifs_change_one_lp
                0x86842464       0x60 fs/built-in.o
                0x86842464                ubifs_change_one_lp
 .text.ubifs_update_one_lp
                0x868424c4       0x64 fs/built-in.o
                0x868424c4                ubifs_update_one_lp
 .text.insert_zbranch
                0x86842528       0xe0 fs/built-in.o
 .text.insert_old_idx
                0x86842608       0xa8 fs/built-in.o
 .text.get_znode
                0x868426b0       0x3c fs/built-in.o
 .text.tnc_prev
                0x868426ec       0x94 fs/built-in.o
 .text.tnc_next
                0x86842780       0x9c fs/built-in.o
 .text.fallible_read_node
                0x8684281c      0x12c fs/built-in.o
 .text.key_in_range.isra.15
                0x86842948       0x5c fs/built-in.o
 .text.correct_parent_keys.isra.16
                0x868429a4       0x6c fs/built-in.o
 .text.tnc_insert
                0x86842a10      0x45c fs/built-in.o
 .text.lnc_free.isra.17
                0x86842e6c       0x28 fs/built-in.o
 .text.matches_name
                0x86842e94       0xe8 fs/built-in.o
 .text.resolve_collision
                0x86842f7c      0x1c8 fs/built-in.o
 .text.tnc_read_node_nm
                0x86843144       0x88 fs/built-in.o
 .text.dirty_cow_znode
                0x868431cc      0x214 fs/built-in.o
 .text.dirty_cow_bottom_up
                0x868433e0      0x108 fs/built-in.o
 .text.lookup_level0_dirty
                0x868434e8      0x1c0 fs/built-in.o
 .text.fallible_matches_name
                0x868436a8       0xf4 fs/built-in.o
 .text.fallible_resolve_collision
                0x8684379c      0x27c fs/built-in.o
 .text.insert_old_idx_znode
                0x86843a18       0x50 fs/built-in.o
                0x86843a18                insert_old_idx_znode
 .text.tnc_delete
                0x86843a68      0x2dc fs/built-in.o
 .text.destroy_old_idx
                0x86843d44       0x40 fs/built-in.o
                0x86843d44                destroy_old_idx
 .text.ubifs_lookup_level0
                0x86843d84      0x160 fs/built-in.o
                0x86843d84                ubifs_lookup_level0
 .text.ubifs_tnc_locate
                0x86843ee4      0x11c fs/built-in.o
                0x86843ee4                ubifs_tnc_locate
 .text.ubifs_tnc_add
                0x86844000       0xd4 fs/built-in.o
                0x86844000                ubifs_tnc_add
 .text.ubifs_tnc_remove
                0x868440d4       0x54 fs/built-in.o
                0x868440d4                ubifs_tnc_remove
 .text.ubifs_tnc_remove_nm
                0x86844128       0xd8 fs/built-in.o
                0x86844128                ubifs_tnc_remove_nm
 .text.ubifs_tnc_add_nm
                0x86844200      0x1c8 fs/built-in.o
                0x86844200                ubifs_tnc_add_nm
 .text.ubifs_tnc_remove_range
                0x868443c8      0x20c fs/built-in.o
                0x868443c8                ubifs_tnc_remove_range
 .text.ubifs_tnc_next_ent
                0x868445d4      0x114 fs/built-in.o
                0x868445d4                ubifs_tnc_next_ent
 .text.ubifs_tnc_remove_ino
                0x868446e8      0x130 fs/built-in.o
                0x868446e8                ubifs_tnc_remove_ino
 .text.ubifs_tnc_close
                0x86844818       0x98 fs/built-in.o
                0x86844818                ubifs_tnc_close
 .text.ubifs_search_zbranch
                0x868448b0       0x80 fs/built-in.o
                0x868448b0                ubifs_search_zbranch
 .text.ubifs_tnc_postorder_first
                0x86844930       0x4c fs/built-in.o
                0x86844930                ubifs_tnc_postorder_first
 .text.ubifs_tnc_postorder_next
                0x8684497c       0x4c fs/built-in.o
                0x8684497c                ubifs_tnc_postorder_next
 .text.ubifs_destroy_tnc_subtree
                0x868449c8       0x90 fs/built-in.o
                0x868449c8                ubifs_destroy_tnc_subtree
 .text.ubifs_load_znode
                0x86844a58      0x2e8 fs/built-in.o
                0x86844a58                ubifs_load_znode
 .text.ubifs_tnc_read_node
                0x86844d40       0x94 fs/built-in.o
                0x86844d40                ubifs_tnc_read_node
 .text.ubifs_dump_inode
                0x86844dd4        0x4 fs/built-in.o
                0x86844dd4                ubifs_dump_inode
 .text.ubifs_dump_node
                0x86844dd8        0x4 fs/built-in.o
                0x86844dd8                ubifs_dump_node
 .text.ubifs_dump_znode
                0x86844ddc        0x4 fs/built-in.o
                0x86844ddc                ubifs_dump_znode
 .text.ubifs_dump_pnode
                0x86844de0        0x4 fs/built-in.o
                0x86844de0                ubifs_dump_pnode
 .text.dbg_check_dir
                0x86844de4        0x8 fs/built-in.o
                0x86844de4                dbg_check_dir
 .text.dbg_debugfs_exit_fs
                0x86844dec        0x4 fs/built-in.o
                0x86844dec                dbg_debugfs_exit_fs
 .text.ubifs_debugging_init
                0x86844df0        0x8 fs/built-in.o
                0x86844df0                ubifs_debugging_init
 .text.ubifs_debugging_exit
                0x86844df8        0x4 fs/built-in.o
                0x86844df8                ubifs_debugging_exit
 .text.dbg_check_filesystem
                0x86844dfc        0x8 fs/built-in.o
                0x86844dfc                dbg_check_filesystem
 .text.dbg_debugfs_init_fs
                0x86844e04        0x8 fs/built-in.o
                0x86844e04                dbg_debugfs_init_fs
 .text.dbg_check_tnc
                0x86844e0c        0x8 fs/built-in.o
                0x86844e0c                dbg_check_tnc
 .text.dbg_check_idx_size
                0x86844e14        0x8 fs/built-in.o
                0x86844e14                dbg_check_idx_size
 .text.crc16    0x86844e1c       0x34 fs/built-in.o
                0x86844e1c                crc16
 .text.ubifs_calc_min_idx_lebs
                0x86844e50       0x94 fs/built-in.o
                0x86844e50                ubifs_calc_min_idx_lebs
 .text.ubifs_reported_space
                0x86844ee4       0x74 fs/built-in.o
                0x86844ee4                ubifs_reported_space
 .text.ubifs_search_bud
                0x86844f58       0x30 fs/built-in.o
                0x86844f58                ubifs_search_bud
 .text.ubifs_get_wbuf
                0x86844f88       0x4c fs/built-in.o
                0x86844f88                ubifs_get_wbuf
 .text.ubifs_add_bud
                0x86844fd4       0xa8 fs/built-in.o
                0x86844fd4                ubifs_add_bud
 .text.ubifs_clear_orphans
                0x8684507c       0x4c fs/built-in.o
                0x8684507c                ubifs_clear_orphans
 .text.ubifs_mount_orphans
                0x868450c8      0x388 fs/built-in.o
                0x868450c8                ubifs_mount_orphans
 .text.is_empty
                0x86845450       0x2c fs/built-in.o
 .text.find_ino
                0x8684547c       0x2c fs/built-in.o
 .text.get_master_node
                0x868454a8      0x1fc fs/built-in.o
 .text.add_ino  0x868456a4       0x98 fs/built-in.o
 .text.ubifs_recover_master_node
                0x8684573c      0x234 fs/built-in.o
                0x8684573c                ubifs_recover_master_node
 .text.ubifs_recover_leb
                0x86845970      0x45c fs/built-in.o
                0x86845970                ubifs_recover_leb
 .text.ubifs_recover_log_leb
                0x86845dcc      0x210 fs/built-in.o
                0x86845dcc                ubifs_recover_log_leb
 .text.ubifs_destroy_size_tree
                0x86845fdc       0x54 fs/built-in.o
                0x86845fdc                ubifs_destroy_size_tree
 .text.ubifs_recover_size_accum
                0x86846030      0x104 fs/built-in.o
                0x86846030                ubifs_recover_size_accum
 .text.ubifs_recover_size
                0x86846134      0x174 fs/built-in.o
                0x86846134                ubifs_recover_size
 .text.replay_entries_cmp
                0x868462a8       0x2c fs/built-in.o
 .text.insert_node
                0x868462d4       0xc8 fs/built-in.o
 .text.ubifs_validate_entry
                0x8684639c       0xf0 fs/built-in.o
                0x8684639c                ubifs_validate_entry
 .text.ubifs_replay_journal
                0x8684648c      0xd8c fs/built-in.o
                0x8684648c                ubifs_replay_journal
 .text.ubifs_destroy_idx_gc
                0x86847218       0x48 fs/built-in.o
                0x86847218                ubifs_destroy_idx_gc
 .text.lzo1x_decompress_safe
                0x86847260      0x63c lib/built-in.o
                0x86847260                lzo1x_decompress_safe
 .text.lzop_decompress
                0x8684789c      0x170 lib/built-in.o
                0x8684789c                lzop_decompress
 .text.zcalloc  0x86847a0c        0x8 lib/built-in.o
                0x86847a0c                zcalloc
 .text.zcfree   0x86847a14        0x8 lib/built-in.o
                0x86847a14                zcfree
 .text.inflate_fast
                0x86847a1c      0x590 lib/built-in.o
                0x86847a1c                inflate_fast
 .text.inflate_table
                0x86847fac      0x548 lib/built-in.o
                0x86847fac                inflate_table
 .text.inflateReset
                0x868484f4       0x78 lib/built-in.o
                0x868484f4                inflateReset
 .text.inflateInit2_
                0x8684856c      0x104 lib/built-in.o
                0x8684856c                inflateInit2_
 .text.inflateEnd
                0x86848670       0x68 lib/built-in.o
                0x86848670                inflateEnd
 .text.adler32  0x868486d8      0x338 lib/built-in.o
                0x868486d8                adler32
 .text.inflate  0x86848a10     0x1504 lib/built-in.o
                0x86848a10                inflate
 .text.fdt_check_header
                0x86849f14       0x74 lib/built-in.o
                0x86849f14                fdt_check_header
 .text.fdt_offset_ptr
                0x86849f88       0x4c lib/built-in.o
                0x86849f88                fdt_offset_ptr
 .text.fdt_next_tag
                0x86849fd4       0xfc lib/built-in.o
                0x86849fd4                fdt_next_tag
 .text._fdt_check_node_offset
                0x8684a0d0       0x3c lib/built-in.o
                0x8684a0d0                _fdt_check_node_offset
 .text._fdt_check_prop_offset
                0x8684a10c       0x3c lib/built-in.o
                0x8684a10c                _fdt_check_prop_offset
 .text.fdt_next_node
                0x8684a148       0xb8 lib/built-in.o
                0x8684a148                fdt_next_node
 .text._fdt_find_string
                0x8684a200       0x5c lib/built-in.o
                0x8684a200                _fdt_find_string
 .text.fdt_move
                0x8684a25c       0x48 lib/built-in.o
                0x8684a25c                fdt_move
 .text._nextprop
                0x8684a2a4       0x5c lib/built-in.o
 .text.fdt_string
                0x8684a300       0x14 lib/built-in.o
                0x8684a300                fdt_string
 .text.fdt_get_mem_rsv
                0x8684a314       0x60 lib/built-in.o
                0x8684a314                fdt_get_mem_rsv
 .text.fdt_num_mem_rsv
                0x8684a374       0x3c lib/built-in.o
                0x8684a374                fdt_num_mem_rsv
 .text.fdt_subnode_offset_namelen
                0x8684a3b0       0xd0 lib/built-in.o
                0x8684a3b0                fdt_subnode_offset_namelen
 .text.fdt_subnode_offset
                0x8684a480       0x30 lib/built-in.o
                0x8684a480                fdt_subnode_offset
 .text.fdt_get_name
                0x8684a4b0       0x74 lib/built-in.o
                0x8684a4b0                fdt_get_name
 .text.fdt_first_property_offset
                0x8684a524       0x20 lib/built-in.o
                0x8684a524                fdt_first_property_offset
 .text.fdt_next_property_offset
                0x8684a544       0x20 lib/built-in.o
                0x8684a544                fdt_next_property_offset
 .text.fdt_get_property_by_offset
                0x8684a564       0x50 lib/built-in.o
                0x8684a564                fdt_get_property_by_offset
 .text.fdt_get_property_namelen
                0x8684a5b4       0xb8 lib/built-in.o
                0x8684a5b4                fdt_get_property_namelen
 .text.fdt_get_property
                0x8684a66c       0x3c lib/built-in.o
                0x8684a66c                fdt_get_property
 .text.fdt_getprop_namelen
                0x8684a6a8       0x20 lib/built-in.o
                0x8684a6a8                fdt_getprop_namelen
 .text.fdt_getprop
                0x8684a6c8       0x3c lib/built-in.o
                0x8684a6c8                fdt_getprop
 .text.fdt_get_alias_namelen
                0x8684a704       0x48 lib/built-in.o
                0x8684a704                fdt_get_alias_namelen
 .text.fdt_path_offset
                0x8684a74c       0xec lib/built-in.o
                0x8684a74c                fdt_path_offset
 .text.fdt_supernode_atdepth_offset
                0x8684a838       0xb4 lib/built-in.o
                0x8684a838                fdt_supernode_atdepth_offset
 .text.fdt_node_depth
                0x8684a8ec       0x28 lib/built-in.o
                0x8684a8ec                fdt_node_depth
 .text._fdt_blocks_misordered
                0x8684a914       0x68 lib/built-in.o
 .text._fdt_splice
                0x8684a97c       0x7c lib/built-in.o
 .text._fdt_splice_mem_rsv
                0x8684a9f8       0x58 lib/built-in.o
 .text._fdt_splice_struct
                0x8684aa50       0x4c lib/built-in.o
 .text._fdt_packblocks
                0x8684aa9c       0xa8 lib/built-in.o
 .text._fdt_add_property
                0x8684ab44      0x120 lib/built-in.o
 .text._fdt_rw_check_header
                0x8684ac64       0x60 lib/built-in.o
 .text.fdt_add_mem_rsv
                0x8684acc4       0x8c lib/built-in.o
                0x8684acc4                fdt_add_mem_rsv
 .text.fdt_del_mem_rsv
                0x8684ad50       0x5c lib/built-in.o
                0x8684ad50                fdt_del_mem_rsv
 .text.fdt_setprop
                0x8684adac       0xc8 lib/built-in.o
                0x8684adac                fdt_setprop
 .text.fdt_delprop
                0x8684ae74       0x64 lib/built-in.o
                0x8684ae74                fdt_delprop
 .text.fdt_add_subnode_namelen
                0x8684aed8       0xf0 lib/built-in.o
                0x8684aed8                fdt_add_subnode_namelen
 .text.fdt_add_subnode
                0x8684afc8       0x30 lib/built-in.o
                0x8684afc8                fdt_add_subnode
 .text.fdt_del_node
                0x8684aff8       0x60 lib/built-in.o
                0x8684aff8                fdt_del_node
 .text.fdt_open_into
                0x8684b058      0x19c lib/built-in.o
                0x8684b058                fdt_open_into
 .text.fdt_strerror
                0x8684b1f4       0x58 lib/built-in.o
                0x8684b1f4                fdt_strerror
 .text._fdt_node_end_offset
                0x8684b24c       0x44 lib/built-in.o
                0x8684b24c                _fdt_node_end_offset
 .text.fdt_address_cells
                0x8684b290       0x4c lib/built-in.o
                0x8684b290                fdt_address_cells
 .text.fdt_size_cells
                0x8684b2dc       0x48 lib/built-in.o
                0x8684b2dc                fdt_size_cells
 .text.cyg_crc16
                0x8684b324       0x44 lib/built-in.o
                0x8684b324                cyg_crc16
 .text.gzalloc  0x8684b368       0x10 lib/built-in.o
                0x8684b368                gzalloc
 .text.gzfree   0x8684b378        0x8 lib/built-in.o
                0x8684b378                gzfree
 .text.zunzip   0x8684b380      0x128 lib/built-in.o
                0x8684b380                zunzip
 .text.gunzip   0x8684b4a8       0xb8 lib/built-in.o
                0x8684b4a8                gunzip
 .text.initcall_run_list
                0x8684b560       0x64 lib/built-in.o
                0x8684b560                initcall_run_list
 .text.lmb_add_region
                0x8684b5c4      0x1a4 lib/built-in.o
 .text.lmb_init
                0x8684b768       0x28 lib/built-in.o
                0x8684b768                lmb_init
 .text.lmb_add  0x8684b790        0x4 lib/built-in.o
                0x8684b790                lmb_add
 .text.lmb_free
                0x8684b794      0x104 lib/built-in.o
                0x8684b794                lmb_free
 .text.lmb_reserve
                0x8684b898        0x8 lib/built-in.o
                0x8684b898                lmb_reserve
 .text.__lmb_alloc_base
                0x8684b8a0      0x130 lib/built-in.o
                0x8684b8a0                __lmb_alloc_base
 .text.lmb_alloc_base
                0x8684b9d0       0x34 lib/built-in.o
                0x8684b9d0                lmb_alloc_base
 .text.lmb_alloc
                0x8684ba04        0x8 lib/built-in.o
                0x8684ba04                lmb_alloc
 .text.board_lmb_reserve
                0x8684ba0c        0x4 lib/built-in.o
                0x8684ba0c                board_lmb_reserve
 .text.string_to_ip
                0x8684ba10       0x68 lib/built-in.o
                0x8684ba10                string_to_ip
 .text.qsort    0x8684ba78       0xdc lib/built-in.o
                0x8684ba78                qsort
 .text.strcmp_compar
                0x8684bb54        0xc lib/built-in.o
                0x8684bb54                strcmp_compar
 .text.rb_insert_color
                0x8684bb60      0x134 lib/built-in.o
                0x8684bb60                rb_insert_color
 .text.rb_erase
                0x8684bc94      0x338 lib/built-in.o
                0x8684bc94                rb_erase
 .text.rb_first
                0x8684bfcc       0x24 lib/built-in.o
                0x8684bfcc                rb_first
 .text.rb_last  0x8684bff0       0x24 lib/built-in.o
                0x8684bff0                rb_last
 .text.rb_next  0x8684c014       0x60 lib/built-in.o
                0x8684c014                rb_next
 .text.rb_next_postorder
                0x8684c074       0x54 lib/built-in.o
                0x8684c074                rb_next_postorder
 .text.rb_first_postorder
                0x8684c0c8       0x34 lib/built-in.o
                0x8684c0c8                rb_first_postorder
 .text.merge    0x8684c0fc       0x68 lib/built-in.o
 .text.list_sort
                0x8684c164      0x198 lib/built-in.o
                0x8684c164                list_sort
 .text.cmpkey   0x8684c2fc       0x14 lib/built-in.o
 .text._hdelete.isra.1
                0x8684c310       0x50 lib/built-in.o
 .text.drop_var_from_set.part.2
                0x8684c360       0x50 lib/built-in.o
 .text.match_string.isra.3
                0x8684c3b0       0x60 lib/built-in.o
 .text.hcreate_r
                0x8684c410       0xb0 lib/built-in.o
                0x8684c410                hcreate_r
 .text.hdestroy_r
                0x8684c4c0       0x7c lib/built-in.o
                0x8684c4c0                hdestroy_r
 .text.hmatch_r
                0x8684c53c       0xa0 lib/built-in.o
                0x8684c53c                hmatch_r
 .text.hsearch_r
                0x8684c5dc      0x4f8 lib/built-in.o
                0x8684c5dc                hsearch_r
 .text.hdelete_r
                0x8684cad4       0xdc lib/built-in.o
                0x8684cad4                hdelete_r
 .text.hexport_r
                0x8684cbb0      0x310 lib/built-in.o
                0x8684cbb0                hexport_r
 .text.himport_r
                0x8684cec0      0x3cc lib/built-in.o
                0x8684cec0                himport_r
 .text.hwalk_r  0x8684d28c       0x58 lib/built-in.o
                0x8684d28c                hwalk_r
 .text.display_options
                0x8684d2e4       0x20 lib/built-in.o
                0x8684d2e4                display_options
 .text.print_size
                0x8684d304      0x130 lib/built-in.o
                0x8684d304                print_size
 .text.print_buffer
                0x8684d434      0x1b4 lib/built-in.o
                0x8684d434                print_buffer
 .text.crc32_no_comp
                0x8684d5e8       0xd8 lib/built-in.o
                0x8684d5e8                crc32_no_comp
 .text.crc32    0x8684d6c0       0x14 lib/built-in.o
                0x8684d6c0                crc32
 .text.crc32_wd
                0x8684d6d4        0x4 lib/built-in.o
                0x8684d6d4                crc32_wd
 .text.__div64_32
                0x8684d6d8       0xd0 lib/built-in.o
                0x8684d6d8                __div64_32
 .text.hang     0x8684d7a8       0x1c lib/built-in.o
                0x8684d7a8                hang
 .text.copy_from_user
                0x8684d7c4       0x10 lib/built-in.o
                0x8684d7c4                copy_from_user
 .text.kmalloc  0x8684d7d4        0xc lib/built-in.o
                0x8684d7d4                kmalloc
 .text.kzalloc  0x8684d7e0       0x2c lib/built-in.o
                0x8684d7e0                kzalloc
 .text.vzalloc  0x8684d80c        0x8 lib/built-in.o
                0x8684d80c                vzalloc
 .text.get_mem  0x8684d814       0x1c lib/built-in.o
                0x8684d814                get_mem
 .text.kmem_cache_alloc
                0x8684d830        0xc lib/built-in.o
                0x8684d830                kmem_cache_alloc
 .text.skip_spaces
                0x8684d83c       0x28 lib/built-in.o
                0x8684d83c                skip_spaces
 .text.strim    0x8684d864       0x60 lib/built-in.o
                0x8684d864                strim
 .text.strcpy   0x8684d8c4       0x18 lib/built-in.o
                0x8684d8c4                strcpy
 .text.strncpy  0x8684d8dc       0x24 lib/built-in.o
                0x8684d8dc                strncpy
 .text.strcat   0x8684d900       0x30 lib/built-in.o
                0x8684d900                strcat
 .text.strncat  0x8684d930       0x54 lib/built-in.o
                0x8684d930                strncat
 .text.strcmp   0x8684d984       0x28 lib/built-in.o
                0x8684d984                strcmp
 .text.strncmp  0x8684d9ac       0x3c lib/built-in.o
                0x8684d9ac                strncmp
 .text.strchr   0x8684d9e8       0x2c lib/built-in.o
                0x8684d9e8                strchr
 .text.strlen   0x8684da14       0x20 lib/built-in.o
                0x8684da14                strlen
 .text.strrchr  0x8684da34       0x3c lib/built-in.o
                0x8684da34                strrchr
 .text.strnlen  0x8684da70       0x2c lib/built-in.o
                0x8684da70                strnlen
 .text.strdup   0x8684da9c       0x40 lib/built-in.o
                0x8684da9c                strdup
 .text.strpbrk  0x8684dadc       0x3c lib/built-in.o
                0x8684dadc                strpbrk
 .text.strsep   0x8684db18       0x38 lib/built-in.o
                0x8684db18                strsep
 .text.memset   0x8684db50       0x5c lib/built-in.o
                0x8684db50                memset
 .text.memcpy   0x8684dbac       0x6c lib/built-in.o
                0x8684dbac                memcpy
 .text.strlcpy  0x8684dc18       0x50 lib/built-in.o
                0x8684dc18                strlcpy
 .text.memmove  0x8684dc68       0x48 lib/built-in.o
                0x8684dc68                memmove
 .text.memcmp   0x8684dcb0       0x30 lib/built-in.o
                0x8684dcb0                memcmp
 .text.strstr   0x8684dce0       0x6c lib/built-in.o
                0x8684dce0                strstr
 .text.memchr   0x8684dd4c       0x30 lib/built-in.o
                0x8684dd4c                memchr
 .text.udelay   0x8684dd7c       0x30 lib/built-in.o
                0x8684dd7c                udelay
 .text.mdelay   0x8684ddac       0x24 lib/built-in.o
                0x8684ddac                mdelay
 .text.put_dec_trunc
                0x8684ddd0       0xd4 lib/built-in.o
 .text.string   0x8684dea4       0xbc lib/built-in.o
 .text.put_dec  0x8684df60      0x138 lib/built-in.o
 .text.number   0x8684e098      0x2b8 lib/built-in.o
 .text.vsnprintf_internal
                0x8684e350      0x698 lib/built-in.o
 .text.simple_strtoul
                0x8684e9e8       0xb8 lib/built-in.o
                0x8684e9e8                simple_strtoul
 .text.strict_strtoul
                0x8684eaa0       0x78 lib/built-in.o
                0x8684eaa0                strict_strtoul
 .text.simple_strtol
                0x8684eb18       0x24 lib/built-in.o
                0x8684eb18                simple_strtol
 .text.ustrtoul
                0x8684eb3c       0x70 lib/built-in.o
                0x8684eb3c                ustrtoul
 .text.simple_strtoull
                0x8684ebac       0xdc lib/built-in.o
                0x8684ebac                simple_strtoull
 .text.ustrtoull
                0x8684ec88       0x88 lib/built-in.o
                0x8684ec88                ustrtoull
 .text.vscnprintf
                0x8684ed10       0x24 lib/built-in.o
                0x8684ed10                vscnprintf
 .text.snprintf
                0x8684ed34       0x28 lib/built-in.o
                0x8684ed34                snprintf
 .text.vsprintf
                0x8684ed5c       0x10 lib/built-in.o
                0x8684ed5c                vsprintf
 .text.sprintf  0x8684ed6c       0x28 lib/built-in.o
                0x8684ed6c                sprintf
 .text.panic    0x8684ed94       0x44 lib/built-in.o
                0x8684ed94                panic
 .text.simple_itoa
                0x8684edd8       0x54 lib/built-in.o
                0x8684edd8                simple_itoa
 .text.compute_ip_checksum
                0x8684ee2c       0x68 net/built-in.o
                0x8684ee2c                compute_ip_checksum
 .text.ip_checksum_ok
                0x8684ee94       0x1c net/built-in.o
                0x8684ee94                ip_checksum_ok
 .text.ArpInit  0x8684eeb0       0x50 net/built-in.o
                0x8684eeb0                ArpInit
 .text.arp_raw_request
                0x8684ef00       0xc0 net/built-in.o
                0x8684ef00                arp_raw_request
 .text.ArpRequest
                0x8684efc0       0x84 net/built-in.o
                0x8684efc0                ArpRequest
 .text.ArpTimeoutCheck
                0x8684f044       0x80 net/built-in.o
                0x8684f044                ArpTimeoutCheck
 .text.ArpReceive
                0x8684f0c4      0x1fc net/built-in.o
                0x8684f0c4                ArpReceive
 .text.DhcpOptionsProcess
                0x8684f2c0      0x218 net/built-in.o
 .text.DhcpHandler
                0x8684f4d8      0x4bc net/built-in.o
 .text.BootpReset
                0x8684f994       0x44 net/built-in.o
                0x8684f994                BootpReset
 .text.BootpRequest
                0x8684f9d8      0x294 net/built-in.o
                0x8684f9d8                BootpRequest
 .text.BootpTimeout
                0x8684fc6c       0x68 net/built-in.o
 .text.DhcpRequest
                0x8684fcd4        0x4 net/built-in.o
                0x8684fcd4                DhcpRequest
 .text.__def_eth_init
                0x8684fcd8        0x8 net/built-in.o
 .text.eth_current_changed
                0x8684fce0       0x5c net/built-in.o
 .text.eth_parse_enetaddr
                0x8684fd3c       0x5c net/built-in.o
                0x8684fd3c                eth_parse_enetaddr
 .text.eth_getenv_enetaddr
                0x8684fd98       0x5c net/built-in.o
                0x8684fd98                eth_getenv_enetaddr
 .text.eth_setenv_enetaddr
                0x8684fdf4       0x34 net/built-in.o
                0x8684fdf4                eth_setenv_enetaddr
 .text.eth_getenv_enetaddr_by_index
                0x8684fe28       0x4c net/built-in.o
                0x8684fe28                eth_getenv_enetaddr_by_index
 .text.eth_get_dev_by_index
                0x8684fe74       0x40 net/built-in.o
                0x8684fe74                eth_get_dev_by_index
 .text.eth_get_dev_index
                0x8684feb4       0x1c net/built-in.o
                0x8684feb4                eth_get_dev_index
 .text.eth_write_hwaddr
                0x8684fed0      0x230 net/built-in.o
                0x8684fed0                eth_write_hwaddr
 .text.eth_register
                0x86850100       0x7c net/built-in.o
                0x86850100                eth_register
 .text.eth_unregister
                0x8685017c       0x8c net/built-in.o
                0x8685017c                eth_unregister
 .text.eth_initialize
                0x86850208      0x1bc net/built-in.o
                0x86850208                eth_initialize
 .text.eth_halt
                0x868503c4       0x30 net/built-in.o
                0x868503c4                eth_halt
 .text.eth_send
                0x868503f4       0x30 net/built-in.o
                0x868503f4                eth_send
 .text.eth_rx   0x86850424       0x24 net/built-in.o
                0x86850424                eth_rx
 .text.eth_try_another
                0x86850448       0x84 net/built-in.o
                0x86850448                eth_try_another
 .text.eth_init
                0x868504cc       0xd0 net/built-in.o
                0x868504cc                eth_init
 .text.eth_set_current
                0x8685059c       0xa4 net/built-in.o
                0x8685059c                eth_set_current
 .text.eth_get_name
                0x86850640       0x20 net/built-in.o
                0x86850640                eth_get_name
 .text.startAgainTimeout
                0x86850660       0x14 net/built-in.o
 .text.dummy_handler
                0x86850674        0x4 net/built-in.o
 .text.net_clear_handlers
                0x86850678       0x34 net/built-in.o
 .text.net_auto_load
                0x868506ac       0x64 net/built-in.o
                0x868506ac                net_auto_load
 .text.NetStartAgain
                0x86850710      0x150 net/built-in.o
                0x86850710                NetStartAgain
 .text.net_set_udp_handler
                0x86850860       0x20 net/built-in.o
                0x86850860                net_set_udp_handler
 .text.net_get_arp_handler
                0x86850880       0x10 net/built-in.o
                0x86850880                net_get_arp_handler
 .text.NetSetTimeout
                0x86850890       0x5c net/built-in.o
                0x86850890                NetSetTimeout
 .text.NetReceive
                0x868508ec      0x270 net/built-in.o
                0x868508ec                NetReceive
 .text.NetEthHdrSize
                0x86850b5c       0x38 net/built-in.o
                0x86850b5c                NetEthHdrSize
 .text.NetSetEther
                0x86850b94       0x94 net/built-in.o
                0x86850b94                NetSetEther
 .text.net_update_ether
                0x86850c28       0x78 net/built-in.o
                0x86850c28                net_update_ether
 .text.net_set_ip_header
                0x86850ca0       0x88 net/built-in.o
                0x86850ca0                net_set_ip_header
 .text.net_set_udp_header
                0x86850d28       0x84 net/built-in.o
                0x86850d28                net_set_udp_header
 .text.NetSendUDPPacket
                0x86850dac      0x10c net/built-in.o
                0x86850dac                NetSendUDPPacket
 .text.copy_filename
                0x86850eb8       0x44 net/built-in.o
                0x86850eb8                copy_filename
 .text.on_bootfile
                0x86850efc       0x2c net/built-in.o
 .text.ip_to_string
                0x86850f28       0x3c net/built-in.o
                0x86850f28                ip_to_string
 .text.string_to_VLAN
                0x86850f64       0x50 net/built-in.o
                0x86850f64                string_to_VLAN
 .text.getenv_VLAN
                0x86850fb4       0x10 net/built-in.o
                0x86850fb4                getenv_VLAN
 .text.NetInitLoop
                0x86850fc4       0xf0 net/built-in.o
 .text.net_init
                0x868510b4       0x70 net/built-in.o
                0x868510b4                net_init
 .text.NetLoop  0x86851124      0x34c net/built-in.o
                0x86851124                NetLoop
 .text.rpc_lookup_reply
                0x86851470       0xb0 net/built-in.o
 .text.nfs_mount_reply
                0x86851520       0xa4 net/built-in.o
 .text.nfs_umountall_reply
                0x868515c4       0x94 net/built-in.o
 .text.nfs_lookup_reply
                0x86851658       0x94 net/built-in.o
 .text.nfs_readlink_reply
                0x868516ec       0xf8 net/built-in.o
 .text.basename
                0x868517e4       0x3c net/built-in.o
 .text.rpc_add_credentials
                0x86851820       0xb4 net/built-in.o
 .text.rpc_req  0x868518d4       0xfc net/built-in.o
 .text.nfs_mount_req
                0x868519d0       0x94 net/built-in.o
 .text.nfs_umountall_req
                0x86851a64       0x60 net/built-in.o
 .text.nfs_lookup_req
                0x86851ac4       0xa8 net/built-in.o
 .text.nfs_read_req
                0x86851b6c       0x78 net/built-in.o
 .text.nfs_readlink_req
                0x86851be4       0x58 net/built-in.o
 .text.nfs_read_reply.isra.0
                0x86851c3c      0x138 net/built-in.o
 .text.NfsSend  0x86851d74      0x114 net/built-in.o
 .text.NfsHandler
                0x86851e88      0x220 net/built-in.o
 .text.NfsTimeout
                0x868520a8       0x64 net/built-in.o
 .text.NfsStart
                0x8685210c      0x250 net/built-in.o
                0x8685210c                NfsStart
 .text.ping_timeout
                0x8685235c       0x1c net/built-in.o
 .text.ping_start
                0x86852378      0x118 net/built-in.o
                0x86852378                ping_start
 .text.ping_receive
                0x86852490       0xdc net/built-in.o
                0x86852490                ping_receive
 .text.TftpSend
                0x8685256c      0x1c8 net/built-in.o
 .text.TftpHandler
                0x86852734      0x378 net/built-in.o
 .text.TftpTimeout
                0x86852aac       0x88 net/built-in.o
 .text.TftpStart
                0x86852b34      0x33c net/built-in.o
                0x86852b34                TftpStart
 .text.do_dm    0x86852e70       0x6c test/dm/built-in.o
 .text.do_dm_dump_uclass
                0x86852edc       0xd0 test/dm/built-in.o
 .text.show_devices
                0x86852fac       0xfc test/dm/built-in.o
 .text.do_dm_dump_all
                0x868530a8       0x40 test/dm/built-in.o
 .text.raise    0x868530e8       0x1c arch/arm/lib/eabi_compat.o
                0x868530e8                raise
 *fill*         0x86853104        0x4 
 .text          0x86853108      0x278 /opt/gcc-linaro-arm-linux-gnueabihf-4.9-2014.09_linux/bin/../lib/gcc/arm-linux-gnueabihf/4.9.2/libgcc.a(_udivsi3.o)
                0x86853108                __udivsi3
                0x86853108                __aeabi_uidiv
                0x86853364                __aeabi_uidivmod
 .text          0x86853380      0x2b0 /opt/gcc-linaro-arm-linux-gnueabihf-4.9-2014.09_linux/bin/../lib/gcc/arm-linux-gnueabihf/4.9.2/libgcc.a(_divsi3.o)
                0x86853380                __aeabi_idiv
                0x86853380                __divsi3
                0x86853614                __aeabi_idivmod
 .text          0x86853630       0x18 /opt/gcc-linaro-arm-linux-gnueabihf-4.9-2014.09_linux/bin/../lib/gcc/arm-linux-gnueabihf/4.9.2/libgcc.a(_lshrdi3.o)
                0x86853630                __aeabi_llsr
                0x86853630                __lshrdi3
 .text          0x86853648       0x1c /opt/gcc-linaro-arm-linux-gnueabihf-4.9-2014.09_linux/bin/../lib/gcc/arm-linux-gnueabihf/4.9.2/libgcc.a(_ashrdi3.o)
                0x86853648                __ashrdi3
                0x86853648                __aeabi_lasr
 .text          0x86853664       0x18 /opt/gcc-linaro-arm-linux-gnueabihf-4.9-2014.09_linux/bin/../lib/gcc/arm-linux-gnueabihf/4.9.2/libgcc.a(_ashldi3.o)
                0x86853664                __ashldi3
                0x86853664                __aeabi_llsl
 .text          0x8685367c       0x38 /opt/gcc-linaro-arm-linux-gnueabihf-4.9-2014.09_linux/bin/../lib/gcc/arm-linux-gnueabihf/4.9.2/libgcc.a(_aeabi_ldivmod.o)
                0x8685367c                __aeabi_ldivmod
 .text          0x868536b4        0xc /opt/gcc-linaro-arm-linux-gnueabihf-4.9-2014.09_linux/bin/../lib/gcc/arm-linux-gnueabihf/4.9.2/libgcc.a(_dvmd_lnx.o)
                0x868536b4                __aeabi_ldiv0
                0x868536b4                __aeabi_idiv0
 .text          0x868536c0       0x60 /opt/gcc-linaro-arm-linux-gnueabihf-4.9-2014.09_linux/bin/../lib/gcc/arm-linux-gnueabihf/4.9.2/libgcc.a(bpabi.o)
                0x868536c0                __gnu_ldivmod_helper
                0x868536f0                __gnu_uldivmod_helper
 .text          0x86853720      0x15c /opt/gcc-linaro-arm-linux-gnueabihf-4.9-2014.09_linux/bin/../lib/gcc/arm-linux-gnueabihf/4.9.2/libgcc.a(_divdi3.o)
                0x86853720                __divdi3
 .text          0x8685387c      0x108 /opt/gcc-linaro-arm-linux-gnueabihf-4.9-2014.09_linux/bin/../lib/gcc/arm-linux-gnueabihf/4.9.2/libgcc.a(_udivdi3.o)
                0x8685387c                __udivdi3

.glue_7         0x86853984        0x0
 .glue_7        0x00000000        0x0 linker stubs

.glue_7t        0x86853984        0x0
 .glue_7t       0x00000000        0x0 linker stubs

.vfp11_veneer   0x86853984        0x0
 .vfp11_veneer  0x00000000        0x0 linker stubs

.v4_bx          0x86853984        0x0
 .v4_bx         0x00000000        0x0 linker stubs

.iplt           0x86853984        0x0
 .iplt          0x00000000        0x0 arch/arm/cpu/armv7/start.o
                0x86853984                . = ALIGN (0x4)

.rodata         0x86853988    0x10cd2
 *(SORT(.rodata*))
 .rodata.fec1_pads
                0x86853988       0x40 board/freescale/mx6g2c/built-in.o
 .rodata.fec2_pads
                0x868539c8       0x50 board/freescale/mx6g2c/built-in.o
 .rodata.iox_pads
                0x86853a18       0x58 board/freescale/mx6g2c/built-in.o
 .rodata.lcd_pads
                0x86853a70       0xb8 board/freescale/mx6g2c/built-in.o
                0x86853a70                lcd_pads
 .rodata.location.8107
                0x86853b28       0x30 common/built-in.o
 .rodata.nand_pads
                0x86853b58       0x78 board/freescale/mx6g2c/built-in.o
 .rodata.uart1_pads
                0x86853bd0       0x10 board/freescale/mx6g2c/built-in.o
 .rodata.uart2_pads
                0x86853be0       0x10 board/freescale/mx6g2c/built-in.o
 .rodata.uart3_pads
                0x86853bf0       0x10 board/freescale/mx6g2c/built-in.o
 .rodata.uart4_pads
                0x86853c00       0x10 board/freescale/mx6g2c/built-in.o
 .rodata.uart5_pads
                0x86853c10       0x10 board/freescale/mx6g2c/built-in.o
 .rodata.uart7_pads
                0x86853c20       0x10 board/freescale/mx6g2c/built-in.o
 .rodata.uart8_pads
                0x86853c30       0x10 board/freescale/mx6g2c/built-in.o
 .rodata.usb_otg_pads
                0x86853c40       0x10 board/freescale/mx6g2c/built-in.o
 .rodata.usdhc1_pads
                0x86853c50       0x40 board/freescale/mx6g2c/built-in.o
 .rodata        0x86853c90       0x80 arch/arm/lib/built-in.o
 .rodata.CSWTCH.11
                0x86853d10       0x88 arch/arm/imx-common/built-in.o
 .rodata.CSWTCH.27
                0x86853d98       0x14 common/built-in.o
 .rodata.CSWTCH.28
                0x86853dac       0x20 common/built-in.o
 .rodata.asix_dongles
                0x86853dcc       0x68 drivers/usb/eth/built-in.o
 .rodata.block_drvr
                0x86853e34       0x24 disk/built-in.o
 .rodata.board_boot_modes
                0x86853e58       0x20 board/freescale/mx6g2c/built-in.o
 .rodata.boot_os
                0x86853e78       0x48 common/built-in.o
 .rodata.crc32table_le
                0x86853ec0      0x400 drivers/mtd/ubi/built-in.o
 .rodata.crc_table
                0x868542c0      0x400 lib/built-in.o
 .rodata.desc_and_len_tbl
                0x868546c0       0x30 common/built-in.o
 .rodata.env_flags_varaccess_mask
                0x868546f0       0x10 common/built-in.o
 .rodata.esdhc_ops
                0x86854700       0x14 drivers/mmc/built-in.o
 .rodata.ext_csd_bits.7261
                0x86854714       0x14 drivers/mmc/built-in.o
 .rodata.ext_to_hostcaps.7262
                0x86854728       0x1c drivers/mmc/built-in.o
 .rodata.fbase  0x86854744       0x10 drivers/mmc/built-in.o
 .rodata.fdt_errtable
                0x86854754       0x34 lib/built-in.o
 .rodata.gpio_ports
                0x86854788       0x14 drivers/gpio/built-in.o
 .rodata.i2c_bases
                0x8685479c       0x10 drivers/i2c/built-in.o
 .rodata.imx6_thermal_plat
                0x868547ac        0xc arch/arm/cpu/armv7/built-in.o
 .rodata.imx_thermal_ops
                0x868547b8        0x4 drivers/built-in.o
 .rodata.mon_lengths.7548
                0x868547bc       0x60 fs/built-in.o
 .rodata.multipliers
                0x8685481c       0x40 drivers/mmc/built-in.o
 .rodata.op_adv
                0x8685485c      0x100 common/built-in.o
                0x8685485c                op_adv
 .rodata.op_table
                0x8685495c       0x68 common/built-in.o
 .rodata.phy_bases
                0x868549c4        0x8 drivers/usb/host/built-in.o
 .rodata.prob_dev
                0x868549cc       0x18 drivers/usb/eth/built-in.o
 .rodata.reg_0_5_desc_tbl
                0x868549e4       0x30 common/built-in.o
 .rodata.reg_0_desc_tbl
                0x86854a14       0x78 common/built-in.o
 .rodata.reg_1_desc_tbl
                0x86854a8c       0xc0 common/built-in.o
 .rodata.reg_2_desc_tbl
                0x86854b4c        0xc common/built-in.o
 .rodata.reg_3_desc_tbl
                0x86854b58       0x24 common/built-in.o
 .rodata.reg_4_desc_tbl
                0x86854b7c       0x90 common/built-in.o
 .rodata.reg_5_desc_tbl
                0x86854c0c       0x90 common/built-in.o
 .rodata.res_mode_init
                0x86854c9c      0x208 drivers/built-in.o
                0x86854c9c                res_mode_init
 .rodata.root_info
                0x86854ea4        0x8 drivers/built-in.o
 .rodata.soc_boot_modes
                0x86854eac       0x60 arch/arm/cpu/armv7/built-in.o
                0x86854eac                soc_boot_modes
 .rodata.ubifs_super_operations
                0x86854f0c       0x3c fs/built-in.o
                0x86854f0c                ubifs_super_operations
 .rodata.uimage_arch
                0x86854f48      0x12c common/built-in.o
 .rodata.uimage_comp
                0x86855074       0x48 common/built-in.o
 .rodata.uimage_os
                0x868550bc       0x6c common/built-in.o
 .rodata.uimage_type
                0x86855128      0x114 common/built-in.o
 .rodata.video_font_draw_table15
                0x8685523c       0x10 drivers/built-in.o
 .rodata.video_font_draw_table16
                0x8685524c       0x10 drivers/built-in.o
 .rodata.video_font_draw_table24
                0x8685525c       0xc0 drivers/built-in.o
 .rodata.video_font_draw_table32
                0x8685531c      0x100 drivers/built-in.o
 .rodata.video_font_draw_table8
                0x8685541c       0x40 drivers/built-in.o
 .rodata.widths.7263
                0x8685545c       0x14 drivers/mmc/built-in.o
 .rodata.year_lengths.7549
                0x86855470        0x8 fs/built-in.o
 .rodata.CSWTCH.5
                0x86855478       0x22 drivers/built-in.o
 .rodata.CSWTCH.6
                0x8685549a       0x22 drivers/built-in.o
 .rodata.crc16_tab
                0x868554bc      0x200 lib/built-in.o
 .rodata.crc16_table
                0x868556bc      0x200 fs/built-in.o
                0x868556bc                crc16_table
 .rodata.dbase.7096
                0x868558bc       0x40 lib/built-in.o
 .rodata.dext.7097
                0x868558fc       0x40 lib/built-in.o
 .rodata.distfix
                0x8685593c       0x80 lib/built-in.o
 .rodata.i2c_clk_div
                0x868559bc       0xc8 drivers/i2c/built-in.o
 .rodata.lbase.7094
                0x86855a84       0x3e lib/built-in.o
 .rodata.lenfix
                0x86855ac2      0x800 lib/built-in.o
 .rodata.lext.7095
                0x868562c2       0x3e lib/built-in.o
 .rodata.order.7190
                0x86856300       0x26 lib/built-in.o
 .rodata        0x86856326        0x3 common/built-in.o
 .rodata        0x86856329       0x3f drivers/usb/host/built-in.o
 .rodata        0x86856368        0xe net/built-in.o
 .rodata.CSWTCH.66
                0x86856376       0x16 common/built-in.o
 .rodata.CSWTCH.7
                0x8685638c       0x11 drivers/built-in.o
 .rodata.__FUNCTION__.7726
                0x8685639d       0x17 common/built-in.o
 .rodata.__FUNCTION__.8000
                0x868563b4        0xb drivers/mtd/nand/built-in.o
 .rodata.__FUNCTION__.8069
                0x868563bf       0x11 drivers/mtd/nand/built-in.o
 .rodata.__FUNCTION__.8143
                0x868563d0       0x11 drivers/mtd/nand/built-in.o
 .rodata.__FUNCTION__.8348
                0x868563e1       0x10 drivers/mtd/ubi/built-in.o
 .rodata.__FUNCTION__.8412
                0x868563f1       0x13 drivers/mtd/built-in.o
 .rodata.__FUNCTION__.8472
                0x86856404       0x12 drivers/mtd/nand/built-in.o
 .rodata.__FUNCTION__.8756
                0x86856416        0xe drivers/mtd/nand/built-in.o
 .rodata.__FUNCTION__.9091
                0x86856424        0xf drivers/mtd/nand/built-in.o
 .rodata.__func__.10014
                0x86856433        0xc fs/built-in.o
 .rodata.__func__.10033
                0x8685643f        0xb fs/built-in.o
 .rodata.__func__.10495
                0x8685644a        0xf board/freescale/mx6g2c/built-in.o
 .rodata.__func__.6929
                0x86856459       0x10 common/built-in.o
 .rodata.__func__.6945
                0x86856469        0xb common/built-in.o
 .rodata.__func__.6952
                0x86856474        0xb common/built-in.o
 .rodata.__func__.6958
                0x8685647f       0x16 arch/arm/cpu/armv7/built-in.o
 .rodata.__func__.7077
                0x86856495        0xa drivers/built-in.o
 .rodata.__func__.7106
                0x8685649f        0xb drivers/built-in.o
 .rodata.__func__.7124
                0x868564aa        0xa drivers/built-in.o
 .rodata.__func__.7135
                0x868564b4        0xe drivers/built-in.o
 .rodata.__func__.7248
                0x868564c2       0x12 drivers/i2c/built-in.o
 .rodata.__func__.7273
                0x868564d4        0xd drivers/i2c/built-in.o
 .rodata.__func__.7316
                0x868564e1       0x12 drivers/i2c/built-in.o
 .rodata.__func__.7485
                0x868564f3       0x19 common/built-in.o
 .rodata.__func__.7493
                0x8685650c        0xe common/built-in.o
 .rodata.__func__.7608
                0x8685651a       0x18 common/built-in.o
 .rodata.__func__.7790
                0x86856532       0x11 drivers/usb/host/built-in.o
 .rodata.__func__.8013
                0x86856543        0xe drivers/built-in.o
 .rodata.__func__.8128
                0x86856551       0x13 drivers/built-in.o
 .rodata.__func__.8137
                0x86856564       0x11 drivers/built-in.o
 .rodata.__func__.8145
                0x86856575        0xd drivers/built-in.o
 .rodata.__func__.8146
                0x86856582        0xb common/built-in.o
 .rodata.__func__.8160
                0x8685658d       0x10 drivers/net/built-in.o
 .rodata.__func__.9909
                0x8685659d        0x8 fs/built-in.o
 .rodata.__func__.9939
                0x868565a5        0xe fs/built-in.o
 .rodata.__func__.9978
                0x868565b3        0x9 fs/built-in.o
 .rodata._ctype
                0x868565bc      0x100 lib/built-in.o
                0x868565bc                _ctype
 .rodata.day_name.7542
                0x868566bc       0x15 fs/built-in.o
 .rodata.default_environment
                0x868566d1      0xab9 common/built-in.o
                0x868566d1                default_environment
 .rodata.delims.6807
                0x8685718a        0x3 common/built-in.o
 .rodata.digits.6804
                0x8685718d       0x10 lib/built-in.o
 .rodata.env_flags_varaccess_rep
                0x8685719d        0x5 common/built-in.o
 .rodata.env_flags_vartype_rep
                0x868571a2        0x7 common/built-in.o
 .rodata.erase_seq
                0x868571a9        0x4 common/built-in.o
 .rodata.hex_asc
                0x868571ad       0x11 lib/built-in.o
 .rodata.lzop_magic
                0x868571be        0x9 lib/built-in.o
 .rodata.mon_name.7543
                0x868571c7       0x24 fs/built-in.o
 .rodata.names.6846
                0x868571eb        0x6 lib/built-in.o
 .rodata.nand_ecc_precalc_table
                0x868571f1      0x100 drivers/mtd/nand/built-in.o
 .rodata.patterns
                0x868572f1        0x3 drivers/mtd/ubi/built-in.o
 .rodata.str1.1
                0x868572f4      0x242 arch/arm/cpu/armv7/built-in.o
                                0x24c (size before relaxing)
 .rodata.str1.1
                0x86857536      0x1e3 arch/arm/imx-common/built-in.o
                                0x1e7 (size before relaxing)
 .rodata.str1.1
                0x86857719      0x389 arch/arm/lib/built-in.o
                                0x3c7 (size before relaxing)
 .rodata.str1.1
                0x86857aa2      0x1d9 board/freescale/mx6g2c/built-in.o
                                0x1de (size before relaxing)
 .rodata.str1.1
                0x86857c7b     0x8832 common/built-in.o
                               0x8f20 (size before relaxing)
 .rodata.str1.1
                0x868604ad      0x42b disk/built-in.o
                                0x469 (size before relaxing)
 .rodata.str1.1
                0x868608d8      0x61b drivers/built-in.o
                                0x64d (size before relaxing)
 .rodata.str1.1
                0x86860ef3       0x27 drivers/dma/built-in.o
 .rodata.str1.1
                0x86860f1a       0xf7 drivers/i2c/built-in.o
 .rodata.str1.1
                0x86861011      0x4aa drivers/mmc/built-in.o
                                0x50d (size before relaxing)
 .rodata.str1.1
                0x868614bb      0x1fa drivers/mtd/built-in.o
                                0x21c (size before relaxing)
 .rodata.str1.1
                0x868616b5      0xb53 drivers/mtd/nand/built-in.o
                                0xb99 (size before relaxing)
 .rodata.str1.1
                0x86862208      0x8d8 drivers/mtd/ubi/built-in.o
                                0x912 (size before relaxing)
 .rodata.str1.1
                0x86862ae0      0x166 drivers/net/built-in.o
                                0x16e (size before relaxing)
 .rodata.str1.1
                0x86862c46      0x146 drivers/net/phy/built-in.o
                                0x148 (size before relaxing)
 .rodata.str1.1
                0x86862d8c       0x57 drivers/serial/built-in.o
                                 0x92 (size before relaxing)
 .rodata.str1.1
                0x86862de3       0xe6 drivers/usb/eth/built-in.o
                                 0xeb (size before relaxing)
 .rodata.str1.1
                0x86862ec9      0x237 drivers/usb/host/built-in.o
 .rodata.str1.1
                0x86863100      0x67c fs/built-in.o
                                0x729 (size before relaxing)
 .rodata.str1.1
                0x8686377c      0x5b6 lib/built-in.o
                                0x60c (size before relaxing)
 .rodata.str1.1
                0x86863d32      0x7cc net/built-in.o
                                0x949 (size before relaxing)
 .rodata.str1.1
                0x868644fe       0xf0 test/dm/built-in.o
                                0x132 (size before relaxing)
 .rodata.str1.1
                0x868645ee       0x1b arch/arm/lib/eabi_compat.o
 .rodata.tab_seq
                0x86864609        0x9 common/built-in.o
 .rodata.us_direction
                0x86864612       0x20 common/built-in.o
 .rodata.version_string
                0x86864632       0x28 common/built-in.o
                0x86864632                version_string

.hash           0x8686465c       0x2c
 .hash          0x8686465c       0x2c arch/arm/cpu/armv7/start.o
                0x86864688                . = ALIGN (0x4)

.data           0x86864688     0x8dd0
 *(.data*)
 .data.imx_ccm  0x86864688        0x4 arch/arm/cpu/armv7/built-in.o
                0x86864688                imx_ccm
 .data.reset_cause
                0x8686468c        0x4 arch/arm/imx-common/built-in.o
 .data.usdhc_cfg
                0x86864690       0x58 board/freescale/mx6g2c/built-in.o
 .data.displays
                0x868646e8      0x154 board/freescale/mx6g2c/built-in.o
                0x868646e8                displays
 .data.reserved_list
                0x8686483c       0x84 common/built-in.o
 .data.init_sequence_f
                0x868648c0       0x9c common/built-in.o
 .data.init_sequence_r
                0x8686495c       0x68 common/built-in.o
                0x8686495c                init_sequence_r
 .data.bootm_help_text
                0x868649c4      0x38b common/built-in.o
 *fill*         0x86864d4f        0x1 
 .data.cmd_bootm_sub
                0x86864d50       0xfc common/built-in.o
 .data.bootz_help_text
                0x86864e4c      0x208 common/built-in.o
 .data.first_call
                0x86865054        0x8 common/built-in.o
 .data.env_name_spec
                0x8686505c        0x4 common/built-in.o
                0x8686505c                env_name_spec
 .data.source_help_text
                0x86865060       0x4e common/built-in.o
 *fill*         0x868650ae        0x2 
 .data.cmd_bmp_sub
                0x868650b0       0x38 common/built-in.o
 .data.tabs.7652
                0x868650e8       0x21 common/built-in.o
 .data.root.7569
                0x86865109        0x2 common/built-in.o
 .data.fdt_help_text
                0x8686510b      0x5e3 common/built-in.o
 .data.i2c_help_text
                0x868656ee      0x37c common/built-in.o
 *fill*         0x86865a6a        0x2 
 .data.cmd_i2c_sub
                0x86865a6c      0x16c common/built-in.o
 .data.i2c_dp_last_length
                0x86865bd8        0x4 common/built-in.o
 .data.do_echo  0x86865bdc        0x4 common/built-in.o
 .data.dp_last_length
                0x86865be0        0x4 common/built-in.o
 .data.curr_device
                0x86865be4        0x4 common/built-in.o
 .data.cmd_mmc  0x86865be8      0x118 common/built-in.o
 .data.mtdparts_help_text
                0x86865d00      0x4d3 common/built-in.o
 .data.nand_help_text
                0x868661d3      0x4c0 common/built-in.o
 *fill*         0x86866693        0x1 
 .data.usb_ether_curr_dev
                0x86866694        0x4 common/built-in.o
 .data.usb_stor_curr_dev
                0x86866698        0x4 common/built-in.o
 .data.imgextract_help_text
                0x8686669c       0x55 common/built-in.o
 .data.env_help_text
                0x868666f1      0x1c2 common/built-in.o
 *fill*         0x868668b3        0x1 
 .data.env_id   0x868668b4        0x4 common/built-in.o
 .data.cmd_env_sub
                0x868668b8       0xe0 common/built-in.o
 .data.env_htab
                0x86866998       0x10 common/built-in.o
                0x86866998                env_htab
 .data.av_      0x868669a8      0x408 common/built-in.o
 .data.sbrk_base
                0x86866db0        0x4 common/built-in.o
 .data.trim_threshold
                0x86866db4        0x4 common/built-in.o
 .data.load_addr
                0x86866db8        0x4 common/built-in.o
                0x86866db8                load_addr
 .data.stdio_names
                0x86866dbc        0xc common/built-in.o
                0x86866dbc                stdio_names
 .data.hist_cur
                0x86866dc8        0x4 common/built-in.o
 .data.nl.7028  0x86866dcc        0x4 drivers/built-in.o
 .data.linux_logo_blue
                0x86866dd0       0xd6 drivers/built-in.o
                0x86866dd0                linux_logo_blue
 .data.video_fontdata
                0x86866ea6     0x1000 drivers/built-in.o
 *fill*         0x86867ea6        0x2 
 .data.video_logo_height
                0x86867ea8        0x4 drivers/built-in.o
 .data.linux_logo
                0x86867eac     0x1900 drivers/built-in.o
                0x86867eac                linux_logo
 .data.linux_logo_green
                0x868697ac       0xd6 drivers/built-in.o
                0x868697ac                linux_logo_green
 .data.linux_logo_red
                0x86869882       0xd6 drivers/built-in.o
                0x86869882                linux_logo_red
 .data.cur_dev_num
                0x86869958        0x4 drivers/mmc/built-in.o
 .data.mtd_partitions
                0x8686995c        0x8 drivers/mtd/built-in.o
 .data.nand_curr_device
                0x86869964        0x4 drivers/mtd/nand/built-in.o
                0x86869964                nand_curr_device
 .data.bbt_mirror_descr
                0x86869968       0x24 drivers/mtd/nand/built-in.o
 .data.mirror_pattern
                0x8686998c        0x4 drivers/mtd/nand/built-in.o
 .data.bbt_main_no_oob_descr
                0x86869990       0x24 drivers/mtd/nand/built-in.o
 .data.bbt_mirror_no_oob_descr
                0x868699b4       0x24 drivers/mtd/nand/built-in.o
 .data.bbt_pattern
                0x868699d8        0x4 drivers/mtd/nand/built-in.o
 .data.scan_ff_pattern
                0x868699dc        0x2 drivers/mtd/nand/built-in.o
 *fill*         0x868699de        0x2 
 .data.bbt_main_descr
                0x868699e0       0x24 drivers/mtd/nand/built-in.o
 .data.nand_flash_ids
                0x86869a04      0xb88 drivers/mtd/nand/built-in.o
                0x86869a04                nand_flash_ids
 .data.nand_oob_8
                0x8686a58c      0xb08 drivers/mtd/nand/built-in.o
 .data.nand_oob_128
                0x8686b094      0xb08 drivers/mtd/nand/built-in.o
 .data.nand_oob_16
                0x8686bb9c      0xb08 drivers/mtd/nand/built-in.o
 .data.nand_oob_64
                0x8686c6a4      0xb08 drivers/mtd/nand/built-in.o
 .data.galois_field
                0x8686d1ac        0x4 drivers/mtd/nand/built-in.o
                0x8686d1ac                galois_field
 .data.chunk_data_chunk_size
                0x8686d1b0        0x4 drivers/mtd/nand/built-in.o
                0x8686d1b0                chunk_data_chunk_size
 .data.phy_drivers
                0x8686d1b4        0x8 drivers/net/phy/built-in.o
 .data.genphy_driver
                0x8686d1bc       0x34 drivers/net/phy/built-in.o
 .data.ksz8895_driver
                0x8686d1f0       0x34 drivers/net/phy/built-in.o
 .data.KSZ804_driver
                0x8686d224       0x34 drivers/net/phy/built-in.o
 .data.ksz9031_driver
                0x8686d258       0x34 drivers/net/phy/built-in.o
 .data.KS8721_driver
                0x8686d28c       0x34 drivers/net/phy/built-in.o
 .data.mxc_serial_drv
                0x8686d2c0       0x30 drivers/serial/built-in.o
 .data.descriptor
                0x8686d2f0       0x38 drivers/usb/host/built-in.o
 .data.fstypes  0x8686d328       0x58 fs/built-in.o
 .data.lzo_compr
                0x8686d380       0x1c fs/built-in.o
 .data.none_compr
                0x8686d39c       0x1c fs/built-in.o
 .data.zlib_compr
                0x8686d3b8       0x1c fs/built-in.o
 .data.ubifs_fs_type
                0x8686d3d4       0x1c fs/built-in.o
 .data.super_blocks
                0x8686d3f0        0x8 fs/built-in.o
                0x8686d3f0                super_blocks
 .data.NetOurNativeVLAN
                0x8686d3f8        0x2 net/built-in.o
                0x8686d3f8                NetOurNativeVLAN
 .data.NetBcastAddr
                0x8686d3fa        0x6 net/built-in.o
                0x8686d3fa                NetBcastAddr
 .data.NetOurVLAN
                0x8686d400        0x2 net/built-in.o
                0x8686d400                NetOurVLAN
 *fill*         0x8686d402        0x2 
 .data.first_call.6993
                0x8686d404        0x4 net/built-in.o
 .data.nfs_offset
                0x8686d408        0x4 net/built-in.o
 .data.TftpTimeoutCountMax
                0x8686d40c        0x4 net/built-in.o
 .data.TftpRRQTimeoutCountMax
                0x8686d410        0x4 net/built-in.o
                0x8686d410                TftpRRQTimeoutCountMax
 .data.TftpBlkSizeOption
                0x8686d414        0x2 net/built-in.o
 *fill*         0x8686d416        0x2 
 .data.TftpTimeoutMSecs
                0x8686d418        0x4 net/built-in.o
 .data.TftpBlkSize
                0x8686d41c        0x2 net/built-in.o
 *fill*         0x8686d41e        0x2 
 .data.test_commands
                0x8686d420       0x38 test/dm/built-in.o

.got            0x8686d458        0x0
 .got           0x00000000        0x0 arch/arm/cpu/armv7/start.o

.got.plt        0x8686d458        0xc
 .got.plt       0x8686d458        0xc arch/arm/cpu/armv7/start.o
                0x8686d458                _GLOBAL_OFFSET_TABLE_

.igot.plt       0x8686d464        0x0
 .igot.plt      0x00000000        0x0 arch/arm/cpu/armv7/start.o
                0x8686d464                . = ALIGN (0x4)
                0x8686d464                . = .
                0x8686d464                . = ALIGN (0x4)

.u_boot_list    0x8686d464      0xab0
 *(SORT(.u_boot_list*))
 .u_boot_list_2_cmd_1
                0x8686d464        0x0 common/built-in.o
 .u_boot_list_2_cmd_2_base
                0x8686d464       0x1c common/built-in.o
                0x8686d464                _u_boot_list_2_cmd_2_base
 .u_boot_list_2_cmd_2_bdinfo
                0x8686d480       0x1c common/built-in.o
                0x8686d480                _u_boot_list_2_cmd_2_bdinfo
 .u_boot_list_2_cmd_2_bmode
                0x8686d49c       0x1c arch/arm/imx-common/built-in.o
                0x8686d49c                _u_boot_list_2_cmd_2_bmode
 .u_boot_list_2_cmd_2_bmp
                0x8686d4b8       0x1c common/built-in.o
                0x8686d4b8                _u_boot_list_2_cmd_2_bmp
 .u_boot_list_2_cmd_2_boot
                0x8686d4d4       0x1c common/built-in.o
                0x8686d4d4                _u_boot_list_2_cmd_2_boot
 .u_boot_list_2_cmd_2_bootd
                0x8686d4f0       0x1c common/built-in.o
                0x8686d4f0                _u_boot_list_2_cmd_2_bootd
 .u_boot_list_2_cmd_2_bootm
                0x8686d50c       0x1c common/built-in.o
                0x8686d50c                _u_boot_list_2_cmd_2_bootm
 .u_boot_list_2_cmd_2_bootp
                0x8686d528       0x1c common/built-in.o
                0x8686d528                _u_boot_list_2_cmd_2_bootp
 .u_boot_list_2_cmd_2_bootz
                0x8686d544       0x1c common/built-in.o
                0x8686d544                _u_boot_list_2_cmd_2_bootz
 .u_boot_list_2_cmd_2_chpart
                0x8686d560       0x1c common/built-in.o
                0x8686d560                _u_boot_list_2_cmd_2_chpart
 .u_boot_list_2_cmd_2_clocks
                0x8686d57c       0x1c arch/arm/cpu/armv7/built-in.o
                0x8686d57c                _u_boot_list_2_cmd_2_clocks
 .u_boot_list_2_cmd_2_clrlogo
                0x8686d598       0x1c drivers/built-in.o
                0x8686d598                _u_boot_list_2_cmd_2_clrlogo
 .u_boot_list_2_cmd_2_cmp
                0x8686d5b4       0x1c common/built-in.o
                0x8686d5b4                _u_boot_list_2_cmd_2_cmp
 .u_boot_list_2_cmd_2_coninfo
                0x8686d5d0       0x1c common/built-in.o
                0x8686d5d0                _u_boot_list_2_cmd_2_coninfo
 .u_boot_list_2_cmd_2_cp
                0x8686d5ec       0x1c common/built-in.o
                0x8686d5ec                _u_boot_list_2_cmd_2_cp
 .u_boot_list_2_cmd_2_crc32
                0x8686d608       0x1c common/built-in.o
                0x8686d608                _u_boot_list_2_cmd_2_crc32
 .u_boot_list_2_cmd_2_dcache
                0x8686d624       0x1c common/built-in.o
                0x8686d624                _u_boot_list_2_cmd_2_dcache
 .u_boot_list_2_cmd_2_dhcp
                0x8686d640       0x1c common/built-in.o
                0x8686d640                _u_boot_list_2_cmd_2_dhcp
 .u_boot_list_2_cmd_2_dm
                0x8686d65c       0x1c test/dm/built-in.o
                0x8686d65c                _u_boot_list_2_cmd_2_dm
 .u_boot_list_2_cmd_2_echo
                0x8686d678       0x1c common/built-in.o
                0x8686d678                _u_boot_list_2_cmd_2_echo
 .u_boot_list_2_cmd_2_editenv
                0x8686d694       0x1c common/built-in.o
                0x8686d694                _u_boot_list_2_cmd_2_editenv
 .u_boot_list_2_cmd_2_env
                0x8686d6b0       0x1c common/built-in.o
                0x8686d6b0                _u_boot_list_2_cmd_2_env
 .u_boot_list_2_cmd_2_erase
                0x8686d6cc       0x1c common/built-in.o
                0x8686d6cc                _u_boot_list_2_cmd_2_erase
 .u_boot_list_2_cmd_2_exit
                0x8686d6e8       0x1c common/built-in.o
                0x8686d6e8                _u_boot_list_2_cmd_2_exit
 .u_boot_list_2_cmd_2_false
                0x8686d704       0x1c common/built-in.o
                0x8686d704                _u_boot_list_2_cmd_2_false
 .u_boot_list_2_cmd_2_fatinfo
                0x8686d720       0x1c common/built-in.o
                0x8686d720                _u_boot_list_2_cmd_2_fatinfo
 .u_boot_list_2_cmd_2_fatload
                0x8686d73c       0x1c common/built-in.o
                0x8686d73c                _u_boot_list_2_cmd_2_fatload
 .u_boot_list_2_cmd_2_fatls
                0x8686d758       0x1c common/built-in.o
                0x8686d758                _u_boot_list_2_cmd_2_fatls
 .u_boot_list_2_cmd_2_fatsize
                0x8686d774       0x1c common/built-in.o
                0x8686d774                _u_boot_list_2_cmd_2_fatsize
 .u_boot_list_2_cmd_2_fdt
                0x8686d790       0x1c common/built-in.o
                0x8686d790                _u_boot_list_2_cmd_2_fdt
 .u_boot_list_2_cmd_2_flinfo
                0x8686d7ac       0x1c common/built-in.o
                0x8686d7ac                _u_boot_list_2_cmd_2_flinfo
 .u_boot_list_2_cmd_2_fuse
                0x8686d7c8       0x1c common/built-in.o
                0x8686d7c8                _u_boot_list_2_cmd_2_fuse
 .u_boot_list_2_cmd_2_go
                0x8686d7e4       0x1c common/built-in.o
                0x8686d7e4                _u_boot_list_2_cmd_2_go
 .u_boot_list_2_cmd_2_help
                0x8686d800       0x1c common/built-in.o
                0x8686d800                _u_boot_list_2_cmd_2_help
 .u_boot_list_2_cmd_2_i2c
                0x8686d81c       0x1c common/built-in.o
                0x8686d81c                _u_boot_list_2_cmd_2_i2c
 .u_boot_list_2_cmd_2_icache
                0x8686d838       0x1c common/built-in.o
                0x8686d838                _u_boot_list_2_cmd_2_icache
 .u_boot_list_2_cmd_2_iminfo
                0x8686d854       0x1c common/built-in.o
                0x8686d854                _u_boot_list_2_cmd_2_iminfo
 .u_boot_list_2_cmd_2_imxtract
                0x8686d870       0x1c common/built-in.o
                0x8686d870                _u_boot_list_2_cmd_2_imxtract
 .u_boot_list_2_cmd_2_itest
                0x8686d88c       0x1c common/built-in.o
                0x8686d88c                _u_boot_list_2_cmd_2_itest
 .u_boot_list_2_cmd_2_lcd
                0x8686d8a8       0x1c common/built-in.o
                0x8686d8a8                _u_boot_list_2_cmd_2_lcd
 .u_boot_list_2_cmd_2_loadb
                0x8686d8c4       0x1c common/built-in.o
                0x8686d8c4                _u_boot_list_2_cmd_2_loadb
 .u_boot_list_2_cmd_2_loads
                0x8686d8e0       0x1c common/built-in.o
                0x8686d8e0                _u_boot_list_2_cmd_2_loads
 .u_boot_list_2_cmd_2_loadx
                0x8686d8fc       0x1c common/built-in.o
                0x8686d8fc                _u_boot_list_2_cmd_2_loadx
 .u_boot_list_2_cmd_2_loady
                0x8686d918       0x1c common/built-in.o
                0x8686d918                _u_boot_list_2_cmd_2_loady
 .u_boot_list_2_cmd_2_loop
                0x8686d934       0x1c common/built-in.o
                0x8686d934                _u_boot_list_2_cmd_2_loop
 .u_boot_list_2_cmd_2_md
                0x8686d950       0x1c common/built-in.o
                0x8686d950                _u_boot_list_2_cmd_2_md
 .u_boot_list_2_cmd_2_mdio
                0x8686d96c       0x1c common/built-in.o
                0x8686d96c                _u_boot_list_2_cmd_2_mdio
 .u_boot_list_2_cmd_2_mii
                0x8686d988       0x1c common/built-in.o
                0x8686d988                _u_boot_list_2_cmd_2_mii
 .u_boot_list_2_cmd_2_mm
                0x8686d9a4       0x1c common/built-in.o
                0x8686d9a4                _u_boot_list_2_cmd_2_mm
 .u_boot_list_2_cmd_2_mmc
                0x8686d9c0       0x1c common/built-in.o
                0x8686d9c0                _u_boot_list_2_cmd_2_mmc
 .u_boot_list_2_cmd_2_mmcinfo
                0x8686d9dc       0x1c common/built-in.o
                0x8686d9dc                _u_boot_list_2_cmd_2_mmcinfo
 .u_boot_list_2_cmd_2_mtdparts
                0x8686d9f8       0x1c common/built-in.o
                0x8686d9f8                _u_boot_list_2_cmd_2_mtdparts
 .u_boot_list_2_cmd_2_mtest
                0x8686da14       0x1c common/built-in.o
                0x8686da14                _u_boot_list_2_cmd_2_mtest
 .u_boot_list_2_cmd_2_mw
                0x8686da30       0x1c common/built-in.o
                0x8686da30                _u_boot_list_2_cmd_2_mw
 .u_boot_list_2_cmd_2_nand
                0x8686da4c       0x1c common/built-in.o
                0x8686da4c                _u_boot_list_2_cmd_2_nand
 .u_boot_list_2_cmd_2_nboot
                0x8686da68       0x1c common/built-in.o
                0x8686da68                _u_boot_list_2_cmd_2_nboot
 .u_boot_list_2_cmd_2_nfs
                0x8686da84       0x1c common/built-in.o
                0x8686da84                _u_boot_list_2_cmd_2_nfs
 .u_boot_list_2_cmd_2_nm
                0x8686daa0       0x1c common/built-in.o
                0x8686daa0                _u_boot_list_2_cmd_2_nm
 .u_boot_list_2_cmd_2_ping
                0x8686dabc       0x1c common/built-in.o
                0x8686dabc                _u_boot_list_2_cmd_2_ping
 .u_boot_list_2_cmd_2_printenv
                0x8686dad8       0x1c common/built-in.o
                0x8686dad8                _u_boot_list_2_cmd_2_printenv
 .u_boot_list_2_cmd_2_protect
                0x8686daf4       0x1c common/built-in.o
                0x8686daf4                _u_boot_list_2_cmd_2_protect
 .u_boot_list_2_cmd_2_question_mark
                0x8686db10       0x1c common/built-in.o
                0x8686db10                _u_boot_list_2_cmd_2_question_mark
 .u_boot_list_2_cmd_2_reset
                0x8686db2c       0x1c common/built-in.o
                0x8686db2c                _u_boot_list_2_cmd_2_reset
 .u_boot_list_2_cmd_2_run
                0x8686db48       0x1c common/built-in.o
                0x8686db48                _u_boot_list_2_cmd_2_run
 .u_boot_list_2_cmd_2_saveenv
                0x8686db64       0x1c common/built-in.o
                0x8686db64                _u_boot_list_2_cmd_2_saveenv
 .u_boot_list_2_cmd_2_setenv
                0x8686db80       0x1c common/built-in.o
                0x8686db80                _u_boot_list_2_cmd_2_setenv
 .u_boot_list_2_cmd_2_showvar
                0x8686db9c       0x1c common/built-in.o
                0x8686db9c                _u_boot_list_2_cmd_2_showvar
 .u_boot_list_2_cmd_2_sleep
                0x8686dbb8       0x1c common/built-in.o
                0x8686dbb8                _u_boot_list_2_cmd_2_sleep
 .u_boot_list_2_cmd_2_source
                0x8686dbd4       0x1c common/built-in.o
                0x8686dbd4                _u_boot_list_2_cmd_2_source
 .u_boot_list_2_cmd_2_test
                0x8686dbf0       0x1c common/built-in.o
                0x8686dbf0                _u_boot_list_2_cmd_2_test
 .u_boot_list_2_cmd_2_tftpboot
                0x8686dc0c       0x1c common/built-in.o
                0x8686dc0c                _u_boot_list_2_cmd_2_tftpboot
 .u_boot_list_2_cmd_2_true
                0x8686dc28       0x1c common/built-in.o
                0x8686dc28                _u_boot_list_2_cmd_2_true
 .u_boot_list_2_cmd_2_ubi
                0x8686dc44       0x1c common/built-in.o
                0x8686dc44                _u_boot_list_2_cmd_2_ubi
 .u_boot_list_2_cmd_2_ubifsload
                0x8686dc60       0x1c common/built-in.o
                0x8686dc60                _u_boot_list_2_cmd_2_ubifsload
 .u_boot_list_2_cmd_2_ubifsls
                0x8686dc7c       0x1c common/built-in.o
                0x8686dc7c                _u_boot_list_2_cmd_2_ubifsls
 .u_boot_list_2_cmd_2_ubifsmount
                0x8686dc98       0x1c common/built-in.o
                0x8686dc98                _u_boot_list_2_cmd_2_ubifsmount
 .u_boot_list_2_cmd_2_ubifsumount
                0x8686dcb4       0x1c common/built-in.o
                0x8686dcb4                _u_boot_list_2_cmd_2_ubifsumount
 .u_boot_list_2_cmd_2_usb
                0x8686dcd0       0x1c common/built-in.o
                0x8686dcd0                _u_boot_list_2_cmd_2_usb
 .u_boot_list_2_cmd_2_usbboot
                0x8686dcec       0x1c common/built-in.o
                0x8686dcec                _u_boot_list_2_cmd_2_usbboot
 .u_boot_list_2_cmd_2_version
                0x8686dd08       0x1c common/built-in.o
                0x8686dd08                _u_boot_list_2_cmd_2_version
 .u_boot_list_2_cmd_3
                0x8686dd24        0x0 common/built-in.o
 .u_boot_list_2_driver_1
                0x8686dd24        0x0 drivers/built-in.o
 .u_boot_list_2_driver_2_imx_thermal
                0x8686dd24       0x44 drivers/built-in.o
                0x8686dd24                _u_boot_list_2_driver_2_imx_thermal
 .u_boot_list_2_driver_2_root_driver
                0x8686dd68       0x44 drivers/built-in.o
                0x8686dd68                _u_boot_list_2_driver_2_root_driver
 .u_boot_list_2_driver_3
                0x8686ddac        0x0 drivers/built-in.o
 .u_boot_list_2_driver_info_1
                0x8686ddac        0x0 drivers/built-in.o
 .u_boot_list_2_driver_info_2_imx6_thermal
                0x8686ddac        0x8 arch/arm/cpu/armv7/built-in.o
                0x8686ddac                _u_boot_list_2_driver_info_2_imx6_thermal
 .u_boot_list_2_driver_info_3
                0x8686ddb4        0x0 drivers/built-in.o
 .u_boot_list_2_env_clbk_1
                0x8686ddb4        0x0 common/built-in.o
 .u_boot_list_2_env_clbk_2_baudrate
                0x8686ddb4        0x8 drivers/serial/built-in.o
                0x8686ddb4                _u_boot_list_2_env_clbk_2_baudrate
 .u_boot_list_2_env_clbk_2_bootfile
                0x8686ddbc        0x8 net/built-in.o
                0x8686ddbc                _u_boot_list_2_env_clbk_2_bootfile
 .u_boot_list_2_env_clbk_2_callbacks
                0x8686ddc4        0x8 common/built-in.o
                0x8686ddc4                _u_boot_list_2_env_clbk_2_callbacks
 .u_boot_list_2_env_clbk_2_console
                0x8686ddcc        0x8 common/built-in.o
                0x8686ddcc                _u_boot_list_2_env_clbk_2_console
 .u_boot_list_2_env_clbk_2_flags
                0x8686ddd4        0x8 common/built-in.o
                0x8686ddd4                _u_boot_list_2_env_clbk_2_flags
 .u_boot_list_2_env_clbk_2_loadaddr
                0x8686dddc        0x8 common/built-in.o
                0x8686dddc                _u_boot_list_2_env_clbk_2_loadaddr
 .u_boot_list_2_env_clbk_3
                0x8686dde4        0x0 common/built-in.o
 .u_boot_list_2_i2c_1
                0x8686dde4        0x0 common/built-in.o
 .u_boot_list_2_i2c_1
                0x8686dde4        0x0 drivers/i2c/built-in.o
 .u_boot_list_2_i2c_2_mxc0
                0x8686dde4       0x2c drivers/i2c/built-in.o
                0x8686dde4                _u_boot_list_2_i2c_2_mxc0
 .u_boot_list_2_i2c_2_mxc1
                0x8686de10       0x2c drivers/i2c/built-in.o
                0x8686de10                _u_boot_list_2_i2c_2_mxc1
 .u_boot_list_2_i2c_2_mxc2
                0x8686de3c       0x2c drivers/i2c/built-in.o
                0x8686de3c                _u_boot_list_2_i2c_2_mxc2
 .u_boot_list_2_i2c_2_mxc3
                0x8686de68       0x2c drivers/i2c/built-in.o
                0x8686de68                _u_boot_list_2_i2c_2_mxc3
 .u_boot_list_2_i2c_3
                0x8686de94        0x0 common/built-in.o
 .u_boot_list_2_i2c_3
                0x8686de94        0x0 drivers/i2c/built-in.o
 .u_boot_list_2_uclass_1
                0x8686de94        0x0 drivers/built-in.o
 .u_boot_list_2_uclass_2_root
                0x8686de94       0x40 drivers/built-in.o
                0x8686de94                _u_boot_list_2_uclass_2_root
 .u_boot_list_2_uclass_2_thermal
                0x8686ded4       0x40 drivers/built-in.o
                0x8686ded4                _u_boot_list_2_uclass_2_thermal
 .u_boot_list_2_uclass_3
                0x8686df14        0x0 drivers/built-in.o
                0x8686df14                . = ALIGN (0x4)

.image_copy_end
                0x8686df14        0x0
 *(.__image_copy_end)
 .__image_copy_end
                0x8686df14        0x0 arch/arm/lib/built-in.o

.rel_dyn_start  0x8686df14        0x0
 *(.__rel_dyn_start)
 .__rel_dyn_start
                0x8686df14        0x0 arch/arm/lib/built-in.o

.rel.dyn        0x8686df14     0x9620
 *(.rel*)
 .rel.got       0x00000000        0x0 arch/arm/cpu/armv7/start.o
 .rel.plt       0x00000000        0x0 arch/arm/cpu/armv7/start.o
 .rel.iplt      0x00000000        0x0 arch/arm/cpu/armv7/start.o
 .rel.text      0x8686df14       0x20 arch/arm/cpu/armv7/start.o
 .rel.text.invalidate_dcache_range
                0x8686df34       0x18 arch/arm/cpu/armv7/start.o
 .rel.text.get_boot_device
                0x00000000        0x0 arch/arm/cpu/armv7/start.o
 .rel.text.get_ipg_clk
                0x8686df4c        0x8 arch/arm/cpu/armv7/start.o
 .rel.text.get_uart_clk
                0x8686df54        0x8 arch/arm/cpu/armv7/start.o
 .rel.text.mxc_get_pll_pfd
                0x8686df5c        0x8 arch/arm/cpu/armv7/start.o
 .rel.text.get_usdhc_clk
                0x8686df64        0x8 arch/arm/cpu/armv7/start.o
 .rel.text.enable_ocotp_clk
                0x8686df6c        0x8 arch/arm/cpu/armv7/start.o
 .rel.text.setup_gpmi_io_clk
                0x00000000        0x0 arch/arm/cpu/armv7/start.o
 .rel.text.enable_usboh3_clk
                0x8686df74        0x8 arch/arm/cpu/armv7/start.o
 .rel.text.enable_enet_clk
                0x8686df7c        0x8 arch/arm/cpu/armv7/start.o
 .rel.text.enable_usdhc_clk
                0x00000000        0x0 arch/arm/cpu/armv7/start.o
 .rel.text.enable_i2c_clk
                0x00000000        0x0 arch/arm/cpu/armv7/start.o
 .rel.text.enable_spi_clk
                0x00000000        0x0 arch/arm/cpu/armv7/start.o
 .rel.text.get_periph_clk
                0x8686df84        0x8 arch/arm/cpu/armv7/start.o
 .rel.text.get_axi_clk
                0x8686df8c        0x8 arch/arm/cpu/armv7/start.o
 .rel.text.enable_lcdif_clock
                0x8686df94        0x8 arch/arm/cpu/armv7/start.o
 .rel.text.mxs_set_lcdclk
                0x8686df9c       0x18 arch/arm/cpu/armv7/start.o
 .rel.text.enable_qspi_clk
                0x00000000        0x0 arch/arm/cpu/armv7/start.o
 .rel.text.mxs_set_vadcclk
                0x00000000        0x0 arch/arm/cpu/armv7/start.o
 .rel.text.mxc_get_clock
                0x8686dfb4       0x98 arch/arm/cpu/armv7/start.o
 .rel.text.do_mx6_showclocks
                0x8686e04c       0x88 arch/arm/cpu/armv7/start.o
 .rel.rodata.soc_boot_modes
                0x8686e0d4       0x58 arch/arm/cpu/armv7/start.o
 .rel.u_boot_list_2_driver_info_2_imx6_thermal
                0x8686e12c       0x10 arch/arm/cpu/armv7/start.o
 .rel.u_boot_list_2_cmd_2_clocks
                0x8686e13c       0x20 arch/arm/cpu/armv7/start.o
 .rel.text.get_imx_reset_cause
                0x00000000        0x0 arch/arm/cpu/armv7/start.o
 .rel.text.imx_ddr_size
                0x00000000        0x0 arch/arm/cpu/armv7/start.o
 .rel.text.get_imx_type
                0x8686e15c       0x10 arch/arm/cpu/armv7/start.o
 .rel.text.print_cpuinfo
                0x8686e16c       0x78 arch/arm/cpu/armv7/start.o
 .rel.text.set_chipselect_size
                0x00000000        0x0 arch/arm/cpu/armv7/start.o
 .rel.text.force_idle_bus
                0x00000000        0x0 arch/arm/cpu/armv7/start.o
 .rel.text.setup_i2c
                0x00000000        0x0 arch/arm/cpu/armv7/start.o
 .rel.text.create_usage
                0x8686e1e4       0x10 arch/arm/cpu/armv7/start.o
 .rel.text.do_boot_mode
                0x8686e1f4       0x10 arch/arm/cpu/armv7/start.o
 .rel.text.add_board_boot_modes
                0x8686e204       0x18 arch/arm/cpu/armv7/start.o
 .rel.rodata.CSWTCH.11
                0x8686e21c      0x110 arch/arm/cpu/armv7/start.o
 .rel.u_boot_list_2_cmd_2_bmode
                0x8686e32c       0x18 arch/arm/cpu/armv7/start.o
 .rel.vectors   0x8686e344       0x38 arch/arm/cpu/armv7/start.o
 .rel.text.relocate_vectors
                0x8686e37c       0x20 arch/arm/cpu/armv7/start.o
 .rel.text.boot_jump_linux
                0x8686e39c       0x28 arch/arm/cpu/armv7/start.o
 .rel.text.boot_prep_linux
                0x8686e3c4       0x18 arch/arm/cpu/armv7/start.o
 .rel.text.bootz_setup
                0x8686e3dc       0x10 arch/arm/cpu/armv7/start.o
 .rel.text.boot_prep_vxworks
                0x8686e3ec       0x10 arch/arm/cpu/armv7/start.o
 .rel.text.interrupt_init
                0x8686e3fc        0x8 arch/arm/cpu/armv7/start.o
 .rel.text.bad_mode
                0x8686e404        0x8 arch/arm/cpu/armv7/start.o
 .rel.text.show_regs
                0x8686e40c       0x60 arch/arm/cpu/armv7/start.o
 .rel.text.do_undefined_instruction
                0x8686e46c        0x8 arch/arm/cpu/armv7/start.o
 .rel.text.do_software_interrupt
                0x8686e474        0x8 arch/arm/cpu/armv7/start.o
 .rel.text.do_prefetch_abort
                0x8686e47c        0x8 arch/arm/cpu/armv7/start.o
 .rel.text.do_data_abort
                0x8686e484        0x8 arch/arm/cpu/armv7/start.o
 .rel.text.do_not_used
                0x8686e48c        0x8 arch/arm/cpu/armv7/start.o
 .rel.text.do_fiq
                0x8686e494        0x8 arch/arm/cpu/armv7/start.o
 .rel.text.do_irq
                0x8686e49c        0x8 arch/arm/cpu/armv7/start.o
 .rel.text.do_reset
                0x8686e4a4        0x8 arch/arm/cpu/armv7/start.o
 .rel.text.enable_caches
                0x00000000        0x0 arch/arm/cpu/armv7/start.o
 .rel.rodata    0x8686e4ac      0x100 arch/arm/cpu/armv7/start.o
 .rel.text.board_mmc_init
                0x8686e5ac       0x18 arch/arm/cpu/armv7/start.o
 .rel.text.check_mmc_autodetect
                0x00000000        0x0 arch/arm/cpu/armv7/start.o
 .rel.text.board_late_mmc_init
                0x00000000        0x0 arch/arm/cpu/armv7/start.o
 .rel.text.board_video_skip
                0x8686e5c4       0x38 arch/arm/cpu/armv7/start.o
 .rel.text.board_eth_init
                0x8686e5fc       0x20 arch/arm/cpu/armv7/start.o
 .rel.text.board_phy_config
                0x8686e61c       0x10 arch/arm/cpu/armv7/start.o
 .rel.text.board_early_init_f
                0x8686e62c       0x38 arch/arm/cpu/armv7/start.o
 .rel.text.hw_watchdog_reset
                0x8686e664        0x8 arch/arm/cpu/armv7/start.o
 .rel.text.wdt_init
                0x8686e66c        0x8 arch/arm/cpu/armv7/start.o
 .rel.text.board_init
                0x8686e674       0x18 arch/arm/cpu/armv7/start.o
 .rel.text.board_late_init
                0x8686e68c        0x8 arch/arm/cpu/armv7/start.o
 .rel.text.checkboard
                0x8686e694        0x8 arch/arm/cpu/armv7/start.o
 .rel.text.do_enable_parallel_lcd
                0x8686e69c        0x8 arch/arm/cpu/armv7/start.o
 .rel.text.get_lcd_panels
                0x8686e6a4        0x8 arch/arm/cpu/armv7/start.o
 .rel.text.splash_screen_prepare
                0x8686e6ac        0x8 arch/arm/cpu/armv7/start.o
 .rel.text.override_lcd_settings
                0x8686e6b4       0x58 arch/arm/cpu/armv7/start.o
 .rel.rodata.board_boot_modes
                0x8686e70c       0x18 arch/arm/cpu/armv7/start.o
 .rel.data.displays
                0x8686e724       0x50 arch/arm/cpu/armv7/start.o
 .rel.text.jumptable_init
                0x8686e774       0xb8 arch/arm/cpu/armv7/start.o
 .rel.text.hash_lookup_algo
                0x00000000        0x0 arch/arm/cpu/armv7/start.o
 .rel.text.hash_progressive_lookup_algo
                0x00000000        0x0 arch/arm/cpu/armv7/start.o
 .rel.text.hash_show
                0x00000000        0x0 arch/arm/cpu/armv7/start.o
 .rel.text.hash_command
                0x8686e82c        0x8 arch/arm/cpu/armv7/start.o
 .rel.text.mapset
                0x8686e834        0x8 arch/arm/cpu/armv7/start.o
 .rel.text.syntax_err
                0x8686e83c        0x8 arch/arm/cpu/armv7/start.o
 .rel.text.xmalloc
                0x8686e844        0x8 arch/arm/cpu/armv7/start.o
 .rel.text.xrealloc
                0x8686e84c        0x8 arch/arm/cpu/armv7/start.o
 .rel.text.done_word
                0x8686e854        0x8 arch/arm/cpu/armv7/start.o
 .rel.text.do_showvar
                0x8686e85c       0x20 arch/arm/cpu/armv7/start.o
 .rel.text.is_assignment
                0x8686e87c        0x8 arch/arm/cpu/armv7/start.o
 .rel.text.file_get
                0x8686e884       0x30 arch/arm/cpu/armv7/start.o
 .rel.text.b_addqchr
                0x8686e8b4        0x8 arch/arm/cpu/armv7/start.o
 .rel.text.get_local_var
                0x8686e8bc       0x20 arch/arm/cpu/armv7/start.o
 .rel.text.set_local_var
                0x8686e8dc       0x20 arch/arm/cpu/armv7/start.o
 .rel.text.insert_var_value_sub
                0x8686e8fc        0x8 arch/arm/cpu/armv7/start.o
 .rel.text.unset_local_var
                0x00000000        0x0 arch/arm/cpu/armv7/start.o
 .rel.text.parse_string_outer
                0x8686e904       0x18 arch/arm/cpu/armv7/start.o
 .rel.text.run_list_real
                0x8686e91c       0x40 arch/arm/cpu/armv7/start.o
 .rel.text.parse_stream_outer
                0x8686e95c       0x68 arch/arm/cpu/armv7/start.o
 .rel.text.parse_file_outer
                0x8686e9c4       0x10 arch/arm/cpu/armv7/start.o
 .rel.text.u_boot_hush_start
                0x8686e9d4       0x18 arch/arm/cpu/armv7/start.o
 .rel.text.bootdelay_process
                0x8686e9ec       0x40 arch/arm/cpu/armv7/start.o
 .rel.text.autoboot_command
                0x8686ea2c       0x18 arch/arm/cpu/armv7/start.o
 .rel.text.setup_mon_len
                0x8686ea44       0x10 arch/arm/cpu/armv7/start.o
 .rel.text.announce_dram_init
                0x8686ea54        0x8 arch/arm/cpu/armv7/start.o
 .rel.text.init_func_i2c
                0x8686ea5c       0x10 arch/arm/cpu/armv7/start.o
 .rel.text.init_baud_rate
                0x8686ea6c        0x8 arch/arm/cpu/armv7/start.o
 .rel.text.show_dram_config
                0x8686ea74        0x8 arch/arm/cpu/armv7/start.o
 .rel.text.board_init_f
                0x8686ea7c        0x8 arch/arm/cpu/armv7/start.o
 .rel.text.initr_reloc_global_data
                0x8686ea84       0x18 arch/arm/cpu/armv7/start.o
 .rel.text.initr_net
                0x8686ea9c        0x8 arch/arm/cpu/armv7/start.o
 .rel.text.initr_ethaddr
                0x8686eaa4        0x8 arch/arm/cpu/armv7/start.o
 .rel.text.initr_env
                0x8686eaac       0x10 arch/arm/cpu/armv7/start.o
 .rel.text.initr_mmc
                0x8686eabc        0x8 arch/arm/cpu/armv7/start.o
 .rel.text.initr_nand
                0x8686eac4        0x8 arch/arm/cpu/armv7/start.o
 .rel.text.board_init_r
                0x8686eacc        0x8 arch/arm/cpu/armv7/start.o
 .rel.text.do_go
                0x8686ead4       0x10 arch/arm/cpu/armv7/start.o
 .rel.text.do_bootm
                0x8686eae4       0x18 arch/arm/cpu/armv7/start.o
 .rel.text.do_bootd
                0x8686eafc        0x8 arch/arm/cpu/armv7/start.o
 .rel.text.image_info
                0x8686eb04       0x40 arch/arm/cpu/armv7/start.o
 .rel.text.do_iminfo
                0x8686eb44        0x8 arch/arm/cpu/armv7/start.o
 .rel.text.bootm_maybe_autostart
                0x8686eb4c       0x20 arch/arm/cpu/armv7/start.o
 .rel.text.do_bootz
                0x8686eb6c       0x10 arch/arm/cpu/armv7/start.o
 .rel.text.bootm_find_ramdisk_fdt
                0x8686eb7c       0x18 arch/arm/cpu/armv7/start.o
 .rel.text.bootm_decomp_image
                0x8686eb94       0x48 arch/arm/cpu/armv7/start.o
 .rel.text.do_bootm_states
                0x8686ebdc       0xb8 arch/arm/cpu/armv7/start.o
 .rel.text.do_bootm_standalone
                0x8686ec94       0x18 arch/arm/cpu/armv7/start.o
 .rel.text.do_bootvx_fdt
                0x8686ecac       0x38 arch/arm/cpu/armv7/start.o
 .rel.text.bootm_os_get_boot_func
                0x8686ece4        0x8 arch/arm/cpu/armv7/start.o
 .rel.text.do_help
                0x8686ecec       0x10 arch/arm/cpu/armv7/start.o
 .rel.text.do_version
                0x8686ecfc       0x20 arch/arm/cpu/armv7/start.o
 .rel.text.env_attr_lookup
                0x8686ed1c        0x8 arch/arm/cpu/armv7/start.o
 .rel.text.find_env_callback
                0x8686ed24       0x10 arch/arm/cpu/armv7/start.o
 .rel.text.on_callbacks
                0x8686ed34       0x20 arch/arm/cpu/armv7/start.o
 .rel.text.set_callback
                0x8686ed54        0x8 arch/arm/cpu/armv7/start.o
 .rel.text.env_callback_init
                0x8686ed5c       0x20 arch/arm/cpu/armv7/start.o
 .rel.text.skip_num
                0x8686ed7c        0x8 arch/arm/cpu/armv7/start.o
 .rel.text.on_flags
                0x8686ed84       0x20 arch/arm/cpu/armv7/start.o
 .rel.text.env_flags_parse_vartype
                0x8686eda4       0x10 arch/arm/cpu/armv7/start.o
 .rel.text.env_flags_parse_varaccess
                0x8686edb4       0x10 arch/arm/cpu/armv7/start.o
 .rel.text.set_flags
                0x8686edc4       0x10 arch/arm/cpu/armv7/start.o
 .rel.text.env_flags_parse_varaccess_from_binflags
                0x00000000        0x0 arch/arm/cpu/armv7/start.o
 .rel.text.env_flags_init
                0x8686edd4       0x30 arch/arm/cpu/armv7/start.o
 .rel.text.env_flags_validate
                0x8686ee04       0x68 arch/arm/cpu/armv7/start.o
 .rel.text.env_init
                0x8686ee6c        0x8 arch/arm/cpu/armv7/start.o
 .rel.text.saveenv
                0x8686ee74       0x38 arch/arm/cpu/armv7/start.o
 .rel.text.env_relocate_spec
                0x8686eeac       0x10 arch/arm/cpu/armv7/start.o
 .rel.text.source
                0x8686eebc       0x38 arch/arm/cpu/armv7/start.o
 .rel.text.do_source
                0x8686eef4        0x8 arch/arm/cpu/armv7/start.o
 .rel.text.print_num
                0x8686eefc        0x8 arch/arm/cpu/armv7/start.o
 .rel.text.do_bdinfo
                0x8686ef04       0xa0 arch/arm/cpu/armv7/start.o
 .rel.text.do_bmp
                0x8686efa4        0x8 arch/arm/cpu/armv7/start.o
 .rel.text.do_bmp_info
                0x8686efac       0x28 arch/arm/cpu/armv7/start.o
 .rel.text.bmp_display
                0x8686efd4        0x8 arch/arm/cpu/armv7/start.o
 .rel.text.do_bmp_display
                0x8686efdc        0x8 arch/arm/cpu/armv7/start.o
 .rel.text.parse_argv
                0x8686efe4       0x18 arch/arm/cpu/armv7/start.o
 .rel.text.invalidate_icache_all
                0x00000000        0x0 arch/arm/cpu/armv7/start.o
 .rel.text.do_icache
                0x8686effc       0x18 arch/arm/cpu/armv7/start.o
 .rel.text.flush_dcache_all
                0x00000000        0x0 arch/arm/cpu/armv7/start.o
 .rel.text.do_dcache
                0x8686f014       0x18 arch/arm/cpu/armv7/start.o
 .rel.text.do_coninfo
                0x8686f02c       0x28 arch/arm/cpu/armv7/start.o
 .rel.text.do_echo
                0x8686f054        0x8 arch/arm/cpu/armv7/start.o
 .rel.text.do_fat_fsinfo
                0x8686f05c       0x10 arch/arm/cpu/armv7/start.o
 .rel.text.fdt_valid
                0x8686f06c       0x28 arch/arm/cpu/armv7/start.o
 .rel.text.is_printable_string
                0x8686f094        0x8 arch/arm/cpu/armv7/start.o
 .rel.text.print_data
                0x8686f09c       0x58 arch/arm/cpu/armv7/start.o
 .rel.text.set_working_fdt_addr
                0x8686f0f4       0x10 arch/arm/cpu/armv7/start.o
 .rel.text.do_fdt
                0x8686f104      0x248 arch/arm/cpu/armv7/start.o
 .rel.text.of_bus_default_count_cells
                0x00000000        0x0 arch/arm/cpu/armv7/start.o
 .rel.text.fdt_find_or_add_subnode
                0x8686f34c       0x10 arch/arm/cpu/armv7/start.o
 .rel.text.fdt_initrd
                0x8686f35c       0x30 arch/arm/cpu/armv7/start.o
 .rel.text.fdt_chosen
                0x8686f38c       0x20 arch/arm/cpu/armv7/start.o
 .rel.text.do_fixup_by_path
                0x8686f3ac        0x8 arch/arm/cpu/armv7/start.o
 .rel.text.fdt_fixup_memory_banks
                0x8686f3b4       0x38 arch/arm/cpu/armv7/start.o
 .rel.text.fdt_fixup_ethernet
                0x8686f3ec       0x38 arch/arm/cpu/armv7/start.o
 .rel.text.fdt_del_node_and_alias
                0x00000000        0x0 arch/arm/cpu/armv7/start.o
 .rel.text.fdt_translate_address
                0x00000000        0x0 arch/arm/cpu/armv7/start.o
 .rel.text.fdt_node_offset_by_compat_reg
                0x00000000        0x0 arch/arm/cpu/armv7/start.o
 .rel.text.fdt_set_phandle
                0x00000000        0x0 arch/arm/cpu/armv7/start.o
 .rel.text.fdt_create_phandle
                0x00000000        0x0 arch/arm/cpu/armv7/start.o
 .rel.text.fdt_set_node_status
                0x00000000        0x0 arch/arm/cpu/armv7/start.o
 .rel.text.fdt_add_edid
                0x00000000        0x0 arch/arm/cpu/armv7/start.o
 .rel.text.fdt_verify_alias_address
                0x00000000        0x0 arch/arm/cpu/armv7/start.o
 .rel.text.fdt_get_base_address
                0x00000000        0x0 arch/arm/cpu/armv7/start.o
 .rel.text.fdt_read_range
                0x00000000        0x0 arch/arm/cpu/armv7/start.o
 .rel.text.fdt_setup_simplefb_node
                0x00000000        0x0 arch/arm/cpu/armv7/start.o
 .rel.text.do_fuse
                0x8686f424       0x70 arch/arm/cpu/armv7/start.o
 .rel.text.do_i2c
                0x8686f494        0x8 arch/arm/cpu/armv7/start.o
 .rel.text.do_i2c_probe
                0x8686f49c       0x10 arch/arm/cpu/armv7/start.o
 .rel.text.do_i2c_bus_num
                0x8686f4ac       0x30 arch/arm/cpu/armv7/start.o
 .rel.text.do_i2c_bus_speed
                0x8686f4dc       0x18 arch/arm/cpu/armv7/start.o
 .rel.text.do_i2c_show_bus
                0x8686f4f4       0x28 arch/arm/cpu/armv7/start.o
 .rel.text.do_i2c_crc
                0x8686f51c       0x20 arch/arm/cpu/armv7/start.o
 .rel.text.do_i2c_read
                0x8686f53c       0x10 arch/arm/cpu/armv7/start.o
 .rel.text.do_i2c_md
                0x8686f54c       0x58 arch/arm/cpu/armv7/start.o
 .rel.text.do_i2c_mw
                0x8686f5a4       0x10 arch/arm/cpu/armv7/start.o
 .rel.text.do_i2c_write
                0x8686f5b4       0x18 arch/arm/cpu/armv7/start.o
 .rel.text.mod_i2c_mem.isra.4
                0x8686f5cc       0x60 arch/arm/cpu/armv7/start.o
 .rel.text.do_i2c_loop
                0x8686f62c       0x10 arch/arm/cpu/armv7/start.o
 .rel.text.binary_test
                0x8686f63c       0x70 arch/arm/cpu/armv7/start.o
 .rel.text.do_itest
                0x8686f6ac       0x40 arch/arm/cpu/armv7/start.o
 .rel.text.cmd_lcd_info
                0x8686f6ec       0x20 arch/arm/cpu/armv7/start.o
 .rel.text.cmd_lcd_select
                0x8686f70c       0x20 arch/arm/cpu/armv7/start.o
 .rel.text.do_lcd_cmd
                0x8686f72c       0x38 arch/arm/cpu/armv7/start.o
 .rel.text.bin_data_init
                0x8686f764       0x18 arch/arm/cpu/armv7/start.o
 .rel.text.k_data_save
                0x8686f77c       0x30 arch/arm/cpu/armv7/start.o
 .rel.text.k_data_restore
                0x8686f7ac       0x30 arch/arm/cpu/armv7/start.o
 .rel.text.load_serial_ymodem
                0x8686f7dc       0x20 arch/arm/cpu/armv7/start.o
 .rel.text.bin_data_char
                0x8686f7fc       0x10 arch/arm/cpu/armv7/start.o
 .rel.text.chk1.constprop.1
                0x8686f80c        0x8 arch/arm/cpu/armv7/start.o
 .rel.text.s1_sendpacket.constprop.2
                0x8686f814       0x18 arch/arm/cpu/armv7/start.o
 .rel.text.load_serial
                0x8686f82c       0x68 arch/arm/cpu/armv7/start.o
 .rel.text.do_load_serial
                0x8686f894       0x30 arch/arm/cpu/armv7/start.o
 .rel.text.do_load_serial_bin
                0x8686f8c4       0xe8 arch/arm/cpu/armv7/start.o
 .rel.text.do_mem_mw
                0x8686f9ac        0x8 arch/arm/cpu/armv7/start.o
 .rel.text.do_mem_md
                0x8686f9b4       0x20 arch/arm/cpu/armv7/start.o
 .rel.text.do_mem_cmp
                0x8686f9d4       0x38 arch/arm/cpu/armv7/start.o
 .rel.text.do_mem_base
                0x8686fa0c       0x10 arch/arm/cpu/armv7/start.o
 .rel.text.do_mem_cp
                0x8686fa1c       0x10 arch/arm/cpu/armv7/start.o
 .rel.text.do_mem_crc
                0x8686fa2c        0x8 arch/arm/cpu/armv7/start.o
 .rel.text.do_mem_mtest
                0x8686fa34       0x40 arch/arm/cpu/armv7/start.o
 .rel.text.mod_mem.isra.2
                0x8686fa74       0x48 arch/arm/cpu/armv7/start.o
 .rel.text.miiphy_get_dev_by_name
                0x8686fabc       0x10 arch/arm/cpu/armv7/start.o
 .rel.text.miiphy_init
                0x8686facc       0x10 arch/arm/cpu/armv7/start.o
 .rel.text.miiphy_register
                0x00000000        0x0 arch/arm/cpu/armv7/start.o
 .rel.text.mdio_register
                0x8686fadc       0x18 arch/arm/cpu/armv7/start.o
 .rel.text.mdio_unregister
                0x00000000        0x0 arch/arm/cpu/armv7/start.o
 .rel.text.mdio_list_devices
                0x8686faf4       0x28 arch/arm/cpu/armv7/start.o
 .rel.text.miiphy_set_current_dev
                0x8686fb1c       0x10 arch/arm/cpu/armv7/start.o
 .rel.text.miiphy_get_active_dev
                0x8686fb2c        0x8 arch/arm/cpu/armv7/start.o
 .rel.text.mdio_get_current_dev
                0x8686fb34        0x8 arch/arm/cpu/armv7/start.o
 .rel.text.mdio_phydev_for_ethname
                0x8686fb3c       0x10 arch/arm/cpu/armv7/start.o
 .rel.text.miiphy_get_current_dev
                0x8686fb4c        0x8 arch/arm/cpu/armv7/start.o
 .rel.text.miiphy_listdev
                0x8686fb54       0x30 arch/arm/cpu/armv7/start.o
 .rel.text.miiphy_speed
                0x8686fb84       0x18 arch/arm/cpu/armv7/start.o
 .rel.text.miiphy_duplex
                0x8686fb9c       0x18 arch/arm/cpu/armv7/start.o
 .rel.text.do_mii
                0x8686fbb4      0x130 arch/arm/cpu/armv7/start.o
 .rel.text.do_mdio
                0x8686fce4       0x70 arch/arm/cpu/armv7/start.o
 .rel.text.do_mmcops
                0x8686fd54       0x18 arch/arm/cpu/armv7/start.o
 .rel.text.init_mmc_device
                0x8686fd6c        0x8 arch/arm/cpu/armv7/start.o
 .rel.text.do_mmc_rescan
                0x8686fd74        0x8 arch/arm/cpu/armv7/start.o
 .rel.text.do_mmc_hwpartition
                0x8686fd7c       0xb0 arch/arm/cpu/armv7/start.o
 .rel.text.do_mmc_dev
                0x8686fe2c       0x38 arch/arm/cpu/armv7/start.o
 .rel.text.do_mmc_part
                0x8686fe64       0x10 arch/arm/cpu/armv7/start.o
 .rel.text.do_mmc_erase
                0x8686fe74       0x30 arch/arm/cpu/armv7/start.o
 .rel.text.do_mmc_write
                0x8686fea4       0x30 arch/arm/cpu/armv7/start.o
 .rel.text.do_mmc_read
                0x8686fed4       0x28 arch/arm/cpu/armv7/start.o
 .rel.text.do_mmcinfo
                0x8686fefc       0xf8 arch/arm/cpu/armv7/start.o
 .rel.text.do_mmc_setdsr
                0x8686fff4       0x28 arch/arm/cpu/armv7/start.o
 .rel.text.get_mtd_info
                0x8687001c       0x28 arch/arm/cpu/armv7/start.o
 .rel.text.part_validate
                0x86870044       0x48 arch/arm/cpu/armv7/start.o
 .rel.text.mtd_part_info
                0x8687008c       0x20 arch/arm/cpu/armv7/start.o
 .rel.text.memsize_format
                0x868700ac       0x20 arch/arm/cpu/armv7/start.o
 .rel.text.index_partitions
                0x868700cc       0x28 arch/arm/cpu/armv7/start.o
 .rel.text.current_save
                0x868700f4       0x40 arch/arm/cpu/armv7/start.o
 .rel.text.part_sort_add
                0x86870134       0x18 arch/arm/cpu/armv7/start.o
 .rel.text.device_del
                0x8687014c       0x18 arch/arm/cpu/armv7/start.o
 .rel.text.generate_mtdparts_save.constprop.7
                0x86870164       0x28 arch/arm/cpu/armv7/start.o
 .rel.text.device_delall.constprop.9
                0x8687018c        0x8 arch/arm/cpu/armv7/start.o
 .rel.text.mtd_devices_init
                0x86870194       0x10 arch/arm/cpu/armv7/start.o
 .rel.text.device_find
                0x868701a4        0x8 arch/arm/cpu/armv7/start.o
 .rel.text.device_parse
                0x868701ac       0x80 arch/arm/cpu/armv7/start.o
 .rel.text.mtd_id_parse
                0x8687022c       0x30 arch/arm/cpu/armv7/start.o
 .rel.text.find_dev_and_part
                0x8687025c       0x40 arch/arm/cpu/armv7/start.o
 .rel.text.mtdparts_init
                0x8687029c       0xd8 arch/arm/cpu/armv7/start.o
 .rel.text.do_chpart
                0x86870374       0x38 arch/arm/cpu/armv7/start.o
 .rel.text.do_mtdparts
                0x868703ac      0x108 arch/arm/cpu/armv7/start.o
 .rel.text.set_dev
                0x868704b4       0x28 arch/arm/cpu/armv7/start.o
 .rel.text.nand_print_and_set_info
                0x868704dc       0x50 arch/arm/cpu/armv7/start.o
 .rel.text.arg_off
                0x8687052c       0x18 arch/arm/cpu/armv7/start.o
 .rel.text.arg_off_size
                0x86870544       0x30 arch/arm/cpu/armv7/start.o
 .rel.text.do_nand
                0x86870574      0x1a0 arch/arm/cpu/armv7/start.o
 .rel.text.nand_load_image
                0x86870714       0x40 arch/arm/cpu/armv7/start.o
 .rel.text.do_nandboot
                0x86870754       0x48 arch/arm/cpu/armv7/start.o
 .rel.text.netboot_common
                0x8687079c       0x98 arch/arm/cpu/armv7/start.o
 .rel.text.do_ping
                0x86870834       0x18 arch/arm/cpu/armv7/start.o
 .rel.text.do_test
                0x8687084c       0x70 arch/arm/cpu/armv7/start.o
 .rel.text.ubi_find_volume
                0x868708bc       0x10 arch/arm/cpu/armv7/start.o
 .rel.text.ubi_volume_continue_write
                0x868708cc       0x10 arch/arm/cpu/armv7/start.o
 .rel.text.ubi_volume_begin_write
                0x868708dc       0x18 arch/arm/cpu/armv7/start.o
 .rel.text.ubi_volume_read
                0x868708f4       0x38 arch/arm/cpu/armv7/start.o
 .rel.text.ubi_part
                0x8687092c       0x78 arch/arm/cpu/armv7/start.o
 .rel.text.do_ubi
                0x868709a4      0x180 arch/arm/cpu/armv7/start.o
 .rel.text.do_ubifs_mount
                0x86870b24       0x10 arch/arm/cpu/armv7/start.o
 .rel.text.do_ubifs_ls
                0x86870b34       0x20 arch/arm/cpu/armv7/start.o
 .rel.text.do_ubifs_load
                0x86870b54       0x18 arch/arm/cpu/armv7/start.o
 .rel.text.ubifs_is_mounted
                0x86870b6c        0x8 arch/arm/cpu/armv7/start.o
 .rel.text.cmd_ubifs_umount
                0x86870b74       0x20 arch/arm/cpu/armv7/start.o
 .rel.text.do_ubifs_umount
                0x86870b94       0x10 arch/arm/cpu/armv7/start.o
 .rel.text.usb_get_class_desc
                0x86870ba4       0x50 arch/arm/cpu/armv7/start.o
 .rel.text.usb_display_class_sub
                0x86870bf4       0xc8 arch/arm/cpu/armv7/start.o
 .rel.text.usb_show_tree_graph
                0x86870cbc       0x48 arch/arm/cpu/armv7/start.o
 .rel.text.usb_display_string
                0x86870d04        0x8 arch/arm/cpu/armv7/start.o
 .rel.text.usb_display_config
                0x86870d0c       0xa8 arch/arm/cpu/armv7/start.o
 .rel.text.do_usbboot
                0x86870db4        0x8 arch/arm/cpu/armv7/start.o
 .rel.text.do_usb_start
                0x86870dbc       0x10 arch/arm/cpu/armv7/start.o
 .rel.text.usb_display_desc.part.3
                0x86870dcc       0x38 arch/arm/cpu/armv7/start.o
 .rel.text.do_usb
                0x86870e04      0x170 arch/arm/cpu/armv7/start.o
 .rel.text.usb_stop
                0x86870f74       0x18 arch/arm/cpu/armv7/start.o
 .rel.text.usb_disable_asynch
                0x86870f8c        0x8 arch/arm/cpu/armv7/start.o
 .rel.text.usb_control_msg
                0x86870f94        0x8 arch/arm/cpu/armv7/start.o
 .rel.text.usb_string_sub
                0x86870f9c        0x8 arch/arm/cpu/armv7/start.o
 .rel.text.usb_get_configuration_no
                0x86870fa4       0x20 arch/arm/cpu/armv7/start.o
 .rel.text.usb_set_interface
                0x86870fc4        0x8 arch/arm/cpu/armv7/start.o
 .rel.text.usb_get_dev_index
                0x86870fcc        0x8 arch/arm/cpu/armv7/start.o
 .rel.text.usb_alloc_new_device
                0x86870fd4       0x18 arch/arm/cpu/armv7/start.o
 .rel.text.usb_free_device
                0x86870fec       0x10 arch/arm/cpu/armv7/start.o
 .rel.text.usb_new_device
                0x86870ffc       0x98 arch/arm/cpu/armv7/start.o
 .rel.text.usb_init
                0x86871094       0x58 arch/arm/cpu/armv7/start.o
 .rel.text.usb_hub_reset
                0x868710ec        0x8 arch/arm/cpu/armv7/start.o
 .rel.text.usb_hub_port_connect_change
                0x868710f4        0x8 arch/arm/cpu/armv7/start.o
 .rel.text.usb_hub_configure
                0x868710fc       0x18 arch/arm/cpu/armv7/start.o
 .rel.text.usb_stor_BBB_transport
                0x86871114       0x10 arch/arm/cpu/armv7/start.o
 .rel.text.usb_stor_CB_comdat
                0x86871124        0x8 arch/arm/cpu/armv7/start.o
 .rel.text.usb_stor_CBI_get_status.isra.4
                0x8687112c        0x8 arch/arm/cpu/armv7/start.o
 .rel.text.usb_stor_CB_transport
                0x86871134       0x10 arch/arm/cpu/armv7/start.o
 .rel.text.usb_request_sense.constprop.10
                0x86871144        0x8 arch/arm/cpu/armv7/start.o
 .rel.text.usb_stor_write
                0x8687114c       0x10 arch/arm/cpu/armv7/start.o
 .rel.text.usb_stor_read
                0x8687115c       0x10 arch/arm/cpu/armv7/start.o
 .rel.text.usb_stor_get_dev
                0x8687116c       0x10 arch/arm/cpu/armv7/start.o
 .rel.text.usb_stor_info
                0x8687117c       0x20 arch/arm/cpu/armv7/start.o
 .rel.text.usb_storage_probe
                0x8687119c       0x38 arch/arm/cpu/armv7/start.o
 .rel.text.usb_stor_get_info
                0x868711d4       0x20 arch/arm/cpu/armv7/start.o
 .rel.text.usb_stor_scan
                0x868711f4       0x40 arch/arm/cpu/armv7/start.o
 .rel.text.do_imgextract
                0x86871234       0x90 arch/arm/cpu/armv7/start.o
 .rel.text.splash_get_pos
                0x868712c4        0x8 arch/arm/cpu/armv7/start.o
 .rel.text.do_env_delete
                0x868712cc       0x10 arch/arm/cpu/armv7/start.o
 .rel.text.do_env_exists
                0x868712dc        0x8 arch/arm/cpu/armv7/start.o
 .rel.text.do_env_save
                0x868712e4       0x10 arch/arm/cpu/armv7/start.o
 .rel.text.do_env
                0x868712f4        0x8 arch/arm/cpu/armv7/start.o
 .rel.text.env_print
                0x868712fc       0x18 arch/arm/cpu/armv7/start.o
 .rel.text.do_env_print
                0x86871314       0x10 arch/arm/cpu/armv7/start.o
 .rel.text.do_env_default
                0x86871324        0x8 arch/arm/cpu/armv7/start.o
 .rel.text._do_env_set.isra.0
                0x8687132c       0x30 arch/arm/cpu/armv7/start.o
 .rel.text.get_env_id
                0x8687135c        0x8 arch/arm/cpu/armv7/start.o
 .rel.text.setenv
                0x86871364        0x8 arch/arm/cpu/armv7/start.o
 .rel.text.setenv_hex
                0x8687136c        0x8 arch/arm/cpu/armv7/start.o
 .rel.text.getenv_f
                0x86871374        0x8 arch/arm/cpu/armv7/start.o
 .rel.text.getenv
                0x8687137c        0x8 arch/arm/cpu/armv7/start.o
 .rel.text.do_env_edit
                0x86871384       0x10 arch/arm/cpu/armv7/start.o
 .rel.text.env_get_addr
                0x86871394        0x8 arch/arm/cpu/armv7/start.o
 .rel.text.env_get_char
                0x8687139c        0x8 arch/arm/cpu/armv7/start.o
 .rel.text.set_default_env
                0x868713a4       0x40 arch/arm/cpu/armv7/start.o
 .rel.text.set_default_vars
                0x868713e4       0x10 arch/arm/cpu/armv7/start.o
 .rel.text.env_import
                0x868713f4       0x38 arch/arm/cpu/armv7/start.o
 .rel.text.env_export
                0x8687142c       0x28 arch/arm/cpu/armv7/start.o
 .rel.text.env_relocate
                0x86871454        0x8 arch/arm/cpu/armv7/start.o
 .rel.text.env_complete
                0x8687145c       0x18 arch/arm/cpu/armv7/start.o
 .rel.text.console_setfile
                0x86871474       0x30 arch/arm/cpu/armv7/start.o
 .rel.text.puts
                0x868714a4        0x8 arch/arm/cpu/armv7/start.o
 .rel.text.putc
                0x868714ac        0x8 arch/arm/cpu/armv7/start.o
 .rel.text.fgetc
                0x868714b4        0x8 arch/arm/cpu/armv7/start.o
 .rel.text.ftstc
                0x868714bc        0x8 arch/arm/cpu/armv7/start.o
 .rel.text.fputc
                0x00000000        0x0 arch/arm/cpu/armv7/start.o
 .rel.text.fputs
                0x00000000        0x0 arch/arm/cpu/armv7/start.o
 .rel.text.ctrlc
                0x868714c4       0x10 arch/arm/cpu/armv7/start.o
 .rel.text.confirm_yesno
                0x868714d4       0x20 arch/arm/cpu/armv7/start.o
 .rel.text.disable_ctrlc
                0x00000000        0x0 arch/arm/cpu/armv7/start.o
 .rel.text.had_ctrlc
                0x868714f4        0x8 arch/arm/cpu/armv7/start.o
 .rel.text.clear_ctrlc
                0x868714fc        0x8 arch/arm/cpu/armv7/start.o
 .rel.text.on_console
                0x86871504       0x20 arch/arm/cpu/armv7/start.o
 .rel.text.stdio_print_current_devices
                0x86871524       0x40 arch/arm/cpu/armv7/start.o
 .rel.text.console_init_r
                0x86871564       0x48 arch/arm/cpu/armv7/start.o
 .rel.text.sbrk
                0x868715ac       0x18 arch/arm/cpu/armv7/start.o
 .rel.text.mem_malloc_init
                0x868715c4       0x18 arch/arm/cpu/armv7/start.o
 .rel.text.malloc_trim
                0x868715dc       0x18 arch/arm/cpu/armv7/start.o
 .rel.text.free
                0x868715f4       0x18 arch/arm/cpu/armv7/start.o
 .rel.text.malloc
                0x8687160c       0x40 arch/arm/cpu/armv7/start.o
 .rel.text.calloc
                0x8687164c        0x8 arch/arm/cpu/armv7/start.o
 .rel.text.realloc
                0x86871654       0x10 arch/arm/cpu/armv7/start.o
 .rel.text.mallopt
                0x00000000        0x0 arch/arm/cpu/armv7/start.o
 .rel.text.on_loadaddr
                0x86871664        0x8 arch/arm/cpu/armv7/start.o
 .rel.text.getenv_bootm_low
                0x8687166c        0x8 arch/arm/cpu/armv7/start.o
 .rel.text.getenv_bootm_size
                0x86871674       0x10 arch/arm/cpu/armv7/start.o
 .rel.text.getenv_bootm_mapsize
                0x86871684        0x8 arch/arm/cpu/armv7/start.o
 .rel.text.genimg_print_size
                0x8687168c       0x10 arch/arm/cpu/armv7/start.o
 .rel.text.genimg_get_os_name
                0x8687169c       0x10 arch/arm/cpu/armv7/start.o
 .rel.text.genimg_get_arch_name
                0x868716ac       0x10 arch/arm/cpu/armv7/start.o
 .rel.text.genimg_get_type_name
                0x868716bc       0x10 arch/arm/cpu/armv7/start.o
 .rel.text.genimg_get_comp_name
                0x868716cc       0x10 arch/arm/cpu/armv7/start.o
 .rel.text.image_print_contents
                0x868716dc       0x50 arch/arm/cpu/armv7/start.o
 .rel.text.genimg_get_os_id
                0x00000000        0x0 arch/arm/cpu/armv7/start.o
 .rel.text.genimg_get_arch_id
                0x00000000        0x0 arch/arm/cpu/armv7/start.o
 .rel.text.genimg_get_type_id
                0x00000000        0x0 arch/arm/cpu/armv7/start.o
 .rel.text.genimg_get_comp_id
                0x00000000        0x0 arch/arm/cpu/armv7/start.o
 .rel.text.genimg_get_kernel_addr_fit
                0x8687172c        0x8 arch/arm/cpu/armv7/start.o
 .rel.text.boot_get_ramdisk
                0x86871734       0x50 arch/arm/cpu/armv7/start.o
 .rel.text.boot_ramdisk_high
                0x86871784       0x20 arch/arm/cpu/armv7/start.o
 .rel.text.fdt_error
                0x868717a4       0x10 arch/arm/cpu/armv7/start.o
 .rel.text.boot_fdt_add_mem_rsv_regions
                0x868717b4        0x8 arch/arm/cpu/armv7/start.o
 .rel.text.boot_relocate_fdt
                0x868717bc       0x40 arch/arm/cpu/armv7/start.o
 .rel.text.boot_get_fdt
                0x868717fc       0x80 arch/arm/cpu/armv7/start.o
 .rel.text.image_setup_libfdt
                0x8687187c       0x18 arch/arm/cpu/armv7/start.o
 .rel.text.stdio_get_list
                0x86871894        0x8 arch/arm/cpu/armv7/start.o
 .rel.text.stdio_get_by_name
                0x8687189c        0x8 arch/arm/cpu/armv7/start.o
 .rel.text.stdio_register_dev
                0x868718a4        0x8 arch/arm/cpu/armv7/start.o
 .rel.text.stdio_init_tables
                0x868718ac        0x8 arch/arm/cpu/armv7/start.o
 .rel.text.stdio_add_devices
                0x868718b4       0x48 arch/arm/cpu/armv7/start.o
 .rel.text.cli_simple_parse_line
                0x00000000        0x0 arch/arm/cpu/armv7/start.o
 .rel.text.cli_simple_run_command
                0x00000000        0x0 arch/arm/cpu/armv7/start.o
 .rel.text.cli_simple_loop
                0x00000000        0x0 arch/arm/cpu/armv7/start.o
 .rel.text.do_run
                0x868718fc        0x8 arch/arm/cpu/armv7/start.o
 .rel.text.delete_char.part.0
                0x86871904       0x10 arch/arm/cpu/armv7/start.o
 .rel.text.cread_add_char
                0x86871914        0x8 arch/arm/cpu/armv7/start.o
 .rel.text.cli_readline_into_buffer
                0x8687191c       0xb0 arch/arm/cpu/armv7/start.o
 .rel.text.cli_readline
                0x868719cc        0x8 arch/arm/cpu/armv7/start.o
 .rel.text.find_cmd
                0x868719d4       0x10 arch/arm/cpu/armv7/start.o
 .rel.text.cmd_usage
                0x868719e4       0x18 arch/arm/cpu/armv7/start.o
 .rel.text._do_help
                0x868719fc       0x10 arch/arm/cpu/armv7/start.o
 .rel.text.var_complete
                0x86871a0c       0x10 arch/arm/cpu/armv7/start.o
 .rel.text.cmd_auto_complete
                0x86871a1c       0x48 arch/arm/cpu/armv7/start.o
 .rel.text.cmd_get_data_size
                0x86871a64        0x8 arch/arm/cpu/armv7/start.o
 .rel.text.cmd_process
                0x86871a6c       0x18 arch/arm/cpu/armv7/start.o
 .rel.text.cmd_process_error
                0x86871a84        0x8 arch/arm/cpu/armv7/start.o
 .rel.text.srec_decode
                0x86871a8c       0x50 arch/arm/cpu/armv7/start.o
 .rel.text.xyzModem_get_hdr
                0x86871adc       0x30 arch/arm/cpu/armv7/start.o
 .rel.text.xyzModem_stream_open
                0x86871b0c       0x10 arch/arm/cpu/armv7/start.o
 .rel.text.xyzModem_stream_read
                0x86871b1c        0x8 arch/arm/cpu/armv7/start.o
 .rel.text.xyzModem_stream_close
                0x86871b24       0x20 arch/arm/cpu/armv7/start.o
 .rel.text.xyzModem_stream_terminate
                0x86871b44        0x8 arch/arm/cpu/armv7/start.o
 .rel.text.xyzModem_error
                0x86871b4c       0x10 arch/arm/cpu/armv7/start.o
 .rel.text.common_diskboot
                0x86871b5c       0x28 arch/arm/cpu/armv7/start.o
 .rel.rodata.boot_os
                0x86871b84       0x18 arch/arm/cpu/armv7/start.o
 .rel.rodata.location.8107
                0x86871b9c        0x8 arch/arm/cpu/armv7/start.o
 .rel.rodata.op_table
                0x86871ba4       0x68 arch/arm/cpu/armv7/start.o
 .rel.rodata.reg_4_desc_tbl
                0x86871c0c       0x60 arch/arm/cpu/armv7/start.o
 .rel.rodata.desc_and_len_tbl
                0x86871c6c       0x30 arch/arm/cpu/armv7/start.o
 .rel.rodata.reg_5_desc_tbl
                0x86871c9c       0x60 arch/arm/cpu/armv7/start.o
 .rel.rodata.reg_2_desc_tbl
                0x86871cfc        0x8 arch/arm/cpu/armv7/start.o
 .rel.rodata.reg_0_5_desc_tbl
                0x86871d04       0x30 arch/arm/cpu/armv7/start.o
 .rel.rodata.reg_3_desc_tbl
                0x86871d34       0x18 arch/arm/cpu/armv7/start.o
 .rel.rodata.reg_0_desc_tbl
                0x86871d4c       0x50 arch/arm/cpu/armv7/start.o
 .rel.rodata.reg_1_desc_tbl
                0x86871d9c       0x80 arch/arm/cpu/armv7/start.o
 .rel.rodata.op_adv
                0x86871e1c       0x80 arch/arm/cpu/armv7/start.o
 .rel.rodata.CSWTCH.27
                0x86871e9c       0x28 arch/arm/cpu/armv7/start.o
 .rel.rodata.uimage_comp
                0x86871ec4       0x60 arch/arm/cpu/armv7/start.o
 .rel.rodata.uimage_os
                0x86871f24       0x88 arch/arm/cpu/armv7/start.o
 .rel.rodata.uimage_arch
                0x86871fac      0x188 arch/arm/cpu/armv7/start.o
 .rel.rodata.uimage_type
                0x86872134      0x168 arch/arm/cpu/armv7/start.o
 .rel.rodata.CSWTCH.28
                0x8687229c       0x40 arch/arm/cpu/armv7/start.o
 .rel.data.hash_algo
                0x00000000        0x0 arch/arm/cpu/armv7/start.o
 .rel.data.reserved_list
                0x868722dc       0x58 arch/arm/cpu/armv7/start.o
 .rel.u_boot_list_2_cmd_2_showvar
                0x86872334       0x20 arch/arm/cpu/armv7/start.o
 .rel.data.init_sequence_f
                0x86872354      0x130 arch/arm/cpu/armv7/start.o
 .rel.data.init_sequence_r
                0x86872484       0xd0 arch/arm/cpu/armv7/start.o
 .rel.u_boot_list_2_cmd_2_go
                0x86872554       0x20 arch/arm/cpu/armv7/start.o
 .rel.u_boot_list_2_cmd_2_reset
                0x86872574       0x20 arch/arm/cpu/armv7/start.o
 .rel.u_boot_list_2_cmd_2_iminfo
                0x86872594       0x20 arch/arm/cpu/armv7/start.o
 .rel.u_boot_list_2_cmd_2_bootz
                0x868725b4       0x20 arch/arm/cpu/armv7/start.o
 .rel.u_boot_list_2_cmd_2_boot
                0x868725d4       0x20 arch/arm/cpu/armv7/start.o
 .rel.u_boot_list_2_cmd_2_bootd
                0x868725f4       0x20 arch/arm/cpu/armv7/start.o
 .rel.u_boot_list_2_cmd_2_bootm
                0x86872614       0x20 arch/arm/cpu/armv7/start.o
 .rel.data.cmd_bootm_sub
                0x86872634       0xd8 arch/arm/cpu/armv7/start.o
 .rel.u_boot_list_2_cmd_2_question_mark
                0x8687270c       0x20 arch/arm/cpu/armv7/start.o
 .rel.u_boot_list_2_cmd_2_help
                0x8687272c       0x20 arch/arm/cpu/armv7/start.o
 .rel.u_boot_list_2_cmd_2_version
                0x8687274c       0x20 arch/arm/cpu/armv7/start.o
 .rel.u_boot_list_2_env_clbk_2_callbacks
                0x8687276c       0x10 arch/arm/cpu/armv7/start.o
 .rel.u_boot_list_2_env_clbk_2_flags
                0x8687277c       0x10 arch/arm/cpu/armv7/start.o
 .rel.data.env_name_spec
                0x8687278c        0x8 arch/arm/cpu/armv7/start.o
 .rel.u_boot_list_2_cmd_2_source
                0x86872794       0x20 arch/arm/cpu/armv7/start.o
 .rel.u_boot_list_2_cmd_2_bdinfo
                0x868727b4       0x20 arch/arm/cpu/armv7/start.o
 .rel.data.cmd_bmp_sub
                0x868727d4       0x40 arch/arm/cpu/armv7/start.o
 .rel.u_boot_list_2_cmd_2_bmp
                0x86872814       0x20 arch/arm/cpu/armv7/start.o
 .rel.u_boot_list_2_cmd_2_icache
                0x86872834       0x20 arch/arm/cpu/armv7/start.o
 .rel.u_boot_list_2_cmd_2_dcache
                0x86872854       0x20 arch/arm/cpu/armv7/start.o
 .rel.u_boot_list_2_cmd_2_coninfo
                0x86872874       0x20 arch/arm/cpu/armv7/start.o
 .rel.u_boot_list_2_cmd_2_echo
                0x86872894       0x20 arch/arm/cpu/armv7/start.o
 .rel.u_boot_list_2_cmd_2_exit
                0x868728b4       0x20 arch/arm/cpu/armv7/start.o
 .rel.u_boot_list_2_cmd_2_fatinfo
                0x868728d4       0x20 arch/arm/cpu/armv7/start.o
 .rel.u_boot_list_2_cmd_2_fatsize
                0x868728f4       0x20 arch/arm/cpu/armv7/start.o
 .rel.u_boot_list_2_cmd_2_fatload
                0x86872914       0x20 arch/arm/cpu/armv7/start.o
 .rel.u_boot_list_2_cmd_2_fatls
                0x86872934       0x20 arch/arm/cpu/armv7/start.o
 .rel.u_boot_list_2_cmd_2_fdt
                0x86872954       0x20 arch/arm/cpu/armv7/start.o
 .rel.data.of_busses
                0x00000000        0x0 arch/arm/cpu/armv7/start.o
 .rel.u_boot_list_2_cmd_2_protect
                0x86872974       0x20 arch/arm/cpu/armv7/start.o
 .rel.u_boot_list_2_cmd_2_erase
                0x86872994       0x20 arch/arm/cpu/armv7/start.o
 .rel.u_boot_list_2_cmd_2_flinfo
                0x868729b4       0x20 arch/arm/cpu/armv7/start.o
 .rel.u_boot_list_2_cmd_2_fuse
                0x868729d4       0x20 arch/arm/cpu/armv7/start.o
 .rel.u_boot_list_2_cmd_2_i2c
                0x868729f4       0x20 arch/arm/cpu/armv7/start.o
 .rel.data.cmd_i2c_sub
                0x86872a14      0x1a0 arch/arm/cpu/armv7/start.o
 .rel.u_boot_list_2_cmd_2_itest
                0x86872bb4       0x20 arch/arm/cpu/armv7/start.o
 .rel.u_boot_list_2_cmd_2_lcd
                0x86872bd4       0x20 arch/arm/cpu/armv7/start.o
 .rel.u_boot_list_2_cmd_2_loadb
                0x86872bf4       0x20 arch/arm/cpu/armv7/start.o
 .rel.u_boot_list_2_cmd_2_loadx
                0x86872c14       0x20 arch/arm/cpu/armv7/start.o
 .rel.u_boot_list_2_cmd_2_loady
                0x86872c34       0x20 arch/arm/cpu/armv7/start.o
 .rel.u_boot_list_2_cmd_2_loads
                0x86872c54       0x20 arch/arm/cpu/armv7/start.o
 .rel.u_boot_list_2_cmd_2_base
                0x86872c74       0x20 arch/arm/cpu/armv7/start.o
 .rel.u_boot_list_2_cmd_2_cmp
                0x86872c94       0x20 arch/arm/cpu/armv7/start.o
 .rel.u_boot_list_2_cmd_2_nm
                0x86872cb4       0x20 arch/arm/cpu/armv7/start.o
 .rel.u_boot_list_2_cmd_2_loop
                0x86872cd4       0x20 arch/arm/cpu/armv7/start.o
 .rel.u_boot_list_2_cmd_2_mtest
                0x86872cf4       0x20 arch/arm/cpu/armv7/start.o
 .rel.u_boot_list_2_cmd_2_cp
                0x86872d14       0x20 arch/arm/cpu/armv7/start.o
 .rel.u_boot_list_2_cmd_2_mm
                0x86872d34       0x20 arch/arm/cpu/armv7/start.o
 .rel.u_boot_list_2_cmd_2_crc32
                0x86872d54       0x20 arch/arm/cpu/armv7/start.o
 .rel.u_boot_list_2_cmd_2_md
                0x86872d74       0x20 arch/arm/cpu/armv7/start.o
 .rel.u_boot_list_2_cmd_2_mw
                0x86872d94       0x20 arch/arm/cpu/armv7/start.o
 .rel.u_boot_list_2_cmd_2_mii
                0x86872db4       0x20 arch/arm/cpu/armv7/start.o
 .rel.u_boot_list_2_cmd_2_mdio
                0x86872dd4       0x20 arch/arm/cpu/armv7/start.o
 .rel.u_boot_list_2_cmd_2_sleep
                0x86872df4       0x20 arch/arm/cpu/armv7/start.o
 .rel.u_boot_list_2_cmd_2_mmcinfo
                0x86872e14       0x20 arch/arm/cpu/armv7/start.o
 .rel.data.cmd_mmc
                0x86872e34      0x140 arch/arm/cpu/armv7/start.o
 .rel.u_boot_list_2_cmd_2_mmc
                0x86872f74       0x20 arch/arm/cpu/armv7/start.o
 .rel.u_boot_list_2_cmd_2_mtdparts
                0x86872f94       0x20 arch/arm/cpu/armv7/start.o
 .rel.u_boot_list_2_cmd_2_chpart
                0x86872fb4       0x20 arch/arm/cpu/armv7/start.o
 .rel.u_boot_list_2_cmd_2_nboot
                0x86872fd4       0x20 arch/arm/cpu/armv7/start.o
 .rel.u_boot_list_2_cmd_2_nand
                0x86872ff4       0x20 arch/arm/cpu/armv7/start.o
 .rel.u_boot_list_2_cmd_2_ping
                0x86873014       0x20 arch/arm/cpu/armv7/start.o
 .rel.u_boot_list_2_cmd_2_dhcp
                0x86873034       0x20 arch/arm/cpu/armv7/start.o
 .rel.u_boot_list_2_cmd_2_bootp
                0x86873054       0x20 arch/arm/cpu/armv7/start.o
 .rel.u_boot_list_2_cmd_2_tftpboot
                0x86873074       0x20 arch/arm/cpu/armv7/start.o
 .rel.u_boot_list_2_cmd_2_nfs
                0x86873094       0x20 arch/arm/cpu/armv7/start.o
 .rel.u_boot_list_2_cmd_2_test
                0x868730b4       0x20 arch/arm/cpu/armv7/start.o
 .rel.u_boot_list_2_cmd_2_true
                0x868730d4       0x18 arch/arm/cpu/armv7/start.o
 .rel.u_boot_list_2_cmd_2_false
                0x868730ec       0x18 arch/arm/cpu/armv7/start.o
 .rel.u_boot_list_2_cmd_2_ubi
                0x86873104       0x20 arch/arm/cpu/armv7/start.o
 .rel.u_boot_list_2_cmd_2_ubifsumount
                0x86873124       0x20 arch/arm/cpu/armv7/start.o
 .rel.u_boot_list_2_cmd_2_ubifsload
                0x86873144       0x20 arch/arm/cpu/armv7/start.o
 .rel.u_boot_list_2_cmd_2_ubifsls
                0x86873164       0x20 arch/arm/cpu/armv7/start.o
 .rel.u_boot_list_2_cmd_2_ubifsmount
                0x86873184       0x20 arch/arm/cpu/armv7/start.o
 .rel.u_boot_list_2_cmd_2_usb
                0x868731a4       0x20 arch/arm/cpu/armv7/start.o
 .rel.u_boot_list_2_cmd_2_usbboot
                0x868731c4       0x20 arch/arm/cpu/armv7/start.o
 .rel.u_boot_list_2_cmd_2_imxtract
                0x868731e4       0x20 arch/arm/cpu/armv7/start.o
 .rel.u_boot_list_2_cmd_2_setenv
                0x86873204       0x28 arch/arm/cpu/armv7/start.o
 .rel.u_boot_list_2_cmd_2_env
                0x8687322c       0x20 arch/arm/cpu/armv7/start.o
 .rel.u_boot_list_2_cmd_2_saveenv
                0x8687324c       0x20 arch/arm/cpu/armv7/start.o
 .rel.data.cmd_env_sub
                0x8687326c      0x100 arch/arm/cpu/armv7/start.o
 .rel.u_boot_list_2_cmd_2_printenv
                0x8687336c       0x28 arch/arm/cpu/armv7/start.o
 .rel.u_boot_list_2_cmd_2_editenv
                0x86873394       0x28 arch/arm/cpu/armv7/start.o
 .rel.u_boot_list_2_cmd_2_run
                0x868733bc       0x28 arch/arm/cpu/armv7/start.o
 .rel.data.env_htab
                0x868733e4        0x8 arch/arm/cpu/armv7/start.o
 .rel.u_boot_list_2_env_clbk_2_console
                0x868733ec       0x10 arch/arm/cpu/armv7/start.o
 .rel.data.av_  0x868733fc      0x800 arch/arm/cpu/armv7/start.o
 .rel.u_boot_list_2_env_clbk_2_loadaddr
                0x86873bfc       0x10 arch/arm/cpu/armv7/start.o
 .rel.data.stdio_names
                0x86873c0c       0x18 arch/arm/cpu/armv7/start.o
 .rel.text.get_dev_hwpart
                0x86873c24        0x8 arch/arm/cpu/armv7/start.o
 .rel.text.dev_print
                0x86873c2c      0x110 arch/arm/cpu/armv7/start.o
 .rel.text.print_part
                0x86873d3c       0xb0 arch/arm/cpu/armv7/start.o
 .rel.text.get_device
                0x86873dec       0x18 arch/arm/cpu/armv7/start.o
 .rel.text.get_device_and_partition
                0x86873e04       0x70 arch/arm/cpu/armv7/start.o
 .rel.text.test_block_type
                0x86873e74       0x10 arch/arm/cpu/armv7/start.o
 .rel.text.print_partition_extended
                0x86873e84       0x30 arch/arm/cpu/armv7/start.o
 .rel.text.get_partition_info_extended.constprop.2
                0x86873eb4       0x80 arch/arm/cpu/armv7/start.o
 .rel.text.print_part_dos
                0x86873f34        0x8 arch/arm/cpu/armv7/start.o
 .rel.rodata.block_drvr
                0x86873f3c       0x28 arch/arm/cpu/armv7/start.o
 .rel.text.device_bind
                0x86873f64       0x10 arch/arm/cpu/armv7/start.o
 .rel.text.device_probe_child
                0x86873f74       0x10 arch/arm/cpu/armv7/start.o
 .rel.text.dev_get_platdata
                0x86873f84       0x10 arch/arm/cpu/armv7/start.o
 .rel.text.dev_get_parent_platdata
                0x00000000        0x0 arch/arm/cpu/armv7/start.o
 .rel.text.dev_get_priv
                0x86873f94       0x10 arch/arm/cpu/armv7/start.o
 .rel.text.dev_get_parentdata
                0x00000000        0x0 arch/arm/cpu/armv7/start.o
 .rel.text.lists_driver_lookup_name
                0x86873fa4       0x10 arch/arm/cpu/armv7/start.o
 .rel.text.lists_uclass_lookup
                0x86873fb4       0x10 arch/arm/cpu/armv7/start.o
 .rel.text.lists_bind_drivers
                0x86873fc4       0x18 arch/arm/cpu/armv7/start.o
 .rel.text.device_bind_driver
                0x00000000        0x0 arch/arm/cpu/armv7/start.o
 .rel.text.dm_root
                0x86873fdc        0x8 arch/arm/cpu/armv7/start.o
 .rel.text.dm_init
                0x86873fe4       0x10 arch/arm/cpu/armv7/start.o
 .rel.text.dm_scan_platdata
                0x86873ff4        0x8 arch/arm/cpu/armv7/start.o
 .rel.text.uclass_get
                0x86873ffc        0x8 arch/arm/cpu/armv7/start.o
 .rel.text.uclass_resolve_seq
                0x86874004        0x8 arch/arm/cpu/armv7/start.o
 .rel.text.device_remove
                0x8687400c       0x20 arch/arm/cpu/armv7/start.o
 .rel.text.finish_access
                0x8687402c        0x8 arch/arm/cpu/armv7/start.o
 .rel.text.prepare_access
                0x86874034        0x8 arch/arm/cpu/armv7/start.o
 .rel.text.fuse_read
                0x8687403c        0x8 arch/arm/cpu/armv7/start.o
 .rel.text.fuse_sense
                0x86874044        0x8 arch/arm/cpu/armv7/start.o
 .rel.text.fuse_prog
                0x8687404c        0x8 arch/arm/cpu/armv7/start.o
 .rel.text.fuse_override
                0x86874054        0x8 arch/arm/cpu/armv7/start.o
 .rel.text.video_drawchars
                0x8687405c       0x80 arch/arm/cpu/armv7/start.o
 .rel.text.draw_bitmap
                0x868740dc       0x28 arch/arm/cpu/armv7/start.o
 .rel.text.console_newline.constprop.1
                0x86874104       0x30 arch/arm/cpu/armv7/start.o
 .rel.text.video_putc
                0x86874134       0x68 arch/arm/cpu/armv7/start.o
 .rel.text.video_puts
                0x8687419c       0x10 arch/arm/cpu/armv7/start.o
 .rel.text.display_rle8_bitmap
                0x868741ac       0x40 arch/arm/cpu/armv7/start.o
 .rel.text.plot_logo_or_black
                0x868741ec       0x60 arch/arm/cpu/armv7/start.o
 .rel.text.do_clrlogo
                0x8687424c       0x20 arch/arm/cpu/armv7/start.o
 .rel.text.video_display_bitmap
                0x8687426c       0x98 arch/arm/cpu/armv7/start.o
 .rel.text.video_clear
                0x86874304       0x18 arch/arm/cpu/armv7/start.o
 .rel.text.drv_video_init
                0x8687431c       0xc0 arch/arm/cpu/armv7/start.o
 .rel.text.video_position_cursor
                0x00000000        0x0 arch/arm/cpu/armv7/start.o
 .rel.text.video_get_pixel_width
                0x00000000        0x0 arch/arm/cpu/armv7/start.o
 .rel.text.video_get_pixel_height
                0x00000000        0x0 arch/arm/cpu/armv7/start.o
 .rel.text.video_get_screen_rows
                0x00000000        0x0 arch/arm/cpu/armv7/start.o
 .rel.text.video_get_screen_columns
                0x00000000        0x0 arch/arm/cpu/armv7/start.o
 .rel.text.mxs_lcd_panel_setup
                0x868743dc       0x20 arch/arm/cpu/armv7/start.o
 .rel.text.mxs_lcd_get_panel
                0x00000000        0x0 arch/arm/cpu/armv7/start.o
 .rel.text.lcdif_power_down
                0x868743fc        0x8 arch/arm/cpu/armv7/start.o
 .rel.text.video_hw_init
                0x86874404       0x70 arch/arm/cpu/armv7/start.o
 .rel.text.video_get_params
                0x86874474       0x88 arch/arm/cpu/armv7/start.o
 .rel.text.video_get_video_mode
                0x00000000        0x0 arch/arm/cpu/armv7/start.o
 .rel.text.video_get_ctfb_res_modes
                0x00000000        0x0 arch/arm/cpu/armv7/start.o
 .rel.text.input_send_keycodes
                0x00000000        0x0 arch/arm/cpu/armv7/start.o
 .rel.text.input_init
                0x00000000        0x0 arch/arm/cpu/armv7/start.o
 .rel.text.input_stdio_register
                0x00000000        0x0 arch/arm/cpu/armv7/start.o
 .rel.text.imx_thermal_get_temp
                0x868744fc        0x8 arch/arm/cpu/armv7/start.o
 .rel.text.imx_thermal_probe
                0x86874504        0x8 arch/arm/cpu/armv7/start.o
 .rel.rodata.root_info
                0x8687450c        0x8 arch/arm/cpu/armv7/start.o
 .rel.rodata.kbd_to_ansi364
                0x00000000        0x0 arch/arm/cpu/armv7/start.o
 .rel.rodata.imx_thermal_ops
                0x86874514        0x8 arch/arm/cpu/armv7/start.o
 .rel.u_boot_list_2_driver_2_root_driver
                0x8687451c        0x8 arch/arm/cpu/armv7/start.o
 .rel.u_boot_list_2_uclass_2_root
                0x86874524        0x8 arch/arm/cpu/armv7/start.o
 .rel.u_boot_list_2_cmd_2_clrlogo
                0x8687452c       0x20 arch/arm/cpu/armv7/start.o
 .rel.u_boot_list_2_uclass_2_thermal
                0x8687454c        0x8 arch/arm/cpu/armv7/start.o
 .rel.u_boot_list_2_driver_2_imx_thermal
                0x86874554       0x18 arch/arm/cpu/armv7/start.o
 .rel.text.mxs_dma_validate_chan
                0x8687456c        0x8 arch/arm/cpu/armv7/start.o
 .rel.text.mxs_dma_release
                0x86874574        0x8 arch/arm/cpu/armv7/start.o
 .rel.text.mxs_dma_desc_append
                0x8687457c        0x8 arch/arm/cpu/armv7/start.o
 .rel.text.mxs_dma_go
                0x86874584        0x8 arch/arm/cpu/armv7/start.o
 .rel.text.mxs_dma_init_channel
                0x8687458c       0x10 arch/arm/cpu/armv7/start.o
 .rel.text.gpio_set_value
                0x8687459c        0x8 arch/arm/cpu/armv7/start.o
 .rel.text.gpio_get_value
                0x868745a4        0x8 arch/arm/cpu/armv7/start.o
 .rel.text.gpio_direction_input
                0x868745ac        0x8 arch/arm/cpu/armv7/start.o
 .rel.text.gpio_direction_output
                0x868745b4        0x8 arch/arm/cpu/armv7/start.o
 .rel.text.i2c_get_adapter
                0x868745bc       0x18 arch/arm/cpu/armv7/start.o
 .rel.text.i2c_init_bus
                0x868745d4       0x10 arch/arm/cpu/armv7/start.o
 .rel.text.i2c_set_bus_num
                0x868745e4       0x18 arch/arm/cpu/armv7/start.o
 .rel.text.wait_for_sr_state
                0x868745fc       0x18 arch/arm/cpu/armv7/start.o
 .rel.text.i2c_imx_get_clk
                0x86874614        0x8 arch/arm/cpu/armv7/start.o
 .rel.text.i2c_imx_stop
                0x8687461c       0x10 arch/arm/cpu/armv7/start.o
 .rel.text.mxc_i2c_set_bus_speed
                0x8687462c       0x10 arch/arm/cpu/armv7/start.o
 .rel.text.i2c_init_transfer
                0x8687463c       0x20 arch/arm/cpu/armv7/start.o
 .rel.text.mxc_i2c_read
                0x8687465c        0x8 arch/arm/cpu/armv7/start.o
 .rel.text.mxc_i2c_write
                0x86874664        0x8 arch/arm/cpu/armv7/start.o
 .rel.text.mxc_i2c_probe
                0x8687466c        0x8 arch/arm/cpu/armv7/start.o
 .rel.text.i2c_get_base
                0x00000000        0x0 arch/arm/cpu/armv7/start.o
 .rel.text.bus_i2c_init
                0x86874674        0x8 arch/arm/cpu/armv7/start.o
 .rel.text.mxc_i2c_init
                0x8687467c        0x8 arch/arm/cpu/armv7/start.o
 .rel.u_boot_list_2_i2c_2_mxc0
                0x86874684       0x30 arch/arm/cpu/armv7/start.o
 .rel.u_boot_list_2_i2c_2_mxc1
                0x868746b4       0x30 arch/arm/cpu/armv7/start.o
 .rel.u_boot_list_2_i2c_2_mxc2
                0x868746e4       0x30 arch/arm/cpu/armv7/start.o
 .rel.u_boot_list_2_i2c_2_mxc3
                0x86874714       0x30 arch/arm/cpu/armv7/start.o
 .rel.text.esdhc_send_cmd
                0x86874744       0x20 arch/arm/cpu/armv7/start.o
 .rel.text.fsl_esdhc_initialize
                0x86874764       0x20 arch/arm/cpu/armv7/start.o
 .rel.text.fdt_fixup_esdhc
                0x00000000        0x0 arch/arm/cpu/armv7/start.o
 .rel.text.mmc_set_capacity
                0x86874784       0x40 arch/arm/cpu/armv7/start.o
 .rel.text.mmc_send_status
                0x868747c4       0x10 arch/arm/cpu/armv7/start.o
 .rel.text.find_mmc_device
                0x868747d4       0x10 arch/arm/cpu/armv7/start.o
 .rel.text.mmc_bread
                0x868747e4       0x10 arch/arm/cpu/armv7/start.o
 .rel.text.mmc_select_hwpart
                0x868747f4        0x8 arch/arm/cpu/armv7/start.o
 .rel.text.mmc_hwpart_config
                0x868747fc       0x48 arch/arm/cpu/armv7/start.o
 .rel.text.mmc_startup
                0x86874844       0xa8 arch/arm/cpu/armv7/start.o
 .rel.text.mmc_register
                0x00000000        0x0 arch/arm/cpu/armv7/start.o
 .rel.text.mmc_create
                0x868748ec       0x28 arch/arm/cpu/armv7/start.o
 .rel.text.mmc_start_init
                0x86874914       0x10 arch/arm/cpu/armv7/start.o
 .rel.text.print_mmc_devices
                0x86874924       0x40 arch/arm/cpu/armv7/start.o
 .rel.text.get_mmc_num
                0x86874964        0x8 arch/arm/cpu/armv7/start.o
 .rel.text.mmc_initialize
                0x8687496c       0x10 arch/arm/cpu/armv7/start.o
 .rel.text.mmc_berase
                0x8687497c       0x10 arch/arm/cpu/armv7/start.o
 .rel.text.mmc_bwrite
                0x8687498c       0x18 arch/arm/cpu/armv7/start.o
 .rel.rodata.esdhc_ops
                0x868749a4       0x20 arch/arm/cpu/armv7/start.o
 .rel.text.__mtd_next_device
                0x868749c4        0x8 arch/arm/cpu/armv7/start.o
 .rel.text.del_mtd_device
                0x868749cc       0x10 arch/arm/cpu/armv7/start.o
 .rel.text.get_mtd_device
                0x868749dc        0x8 arch/arm/cpu/armv7/start.o
 .rel.text.__put_mtd_device
                0x868749e4       0x10 arch/arm/cpu/armv7/start.o
 .rel.text.add_mtd_device
                0x868749f4       0x20 arch/arm/cpu/armv7/start.o
 .rel.text.mtd_erase_callback
                0x86874a14        0x8 arch/arm/cpu/armv7/start.o
 .rel.text.del_mtd_partitions
                0x86874a1c        0x8 arch/arm/cpu/armv7/start.o
 .rel.text.add_mtd_partitions
                0x86874a24       0xe8 arch/arm/cpu/armv7/start.o
 .rel.text.mtd_is_partition
                0x86874b0c        0x8 arch/arm/cpu/armv7/start.o
 .rel.data.mtd_partitions
                0x86874b14       0x10 arch/arm/cpu/armv7/start.o
 .rel.text.nand_register
                0x86874b24       0x28 arch/arm/cpu/armv7/start.o
 .rel.text.nand_init
                0x86874b4c       0x20 arch/arm/cpu/armv7/start.o
 .rel.text.verify_bbt_descr
                0x86874b6c       0x20 arch/arm/cpu/armv7/start.o
 .rel.text.create_bbt
                0x86874b8c       0x20 arch/arm/cpu/armv7/start.o
 .rel.text.write_bbt
                0x86874bac       0x40 arch/arm/cpu/armv7/start.o
 .rel.text.nand_default_bbt
                0x86874bec       0x28 arch/arm/cpu/armv7/start.o
 .rel.text.nand_erase_opts
                0x86874c14       0x48 arch/arm/cpu/armv7/start.o
 .rel.text.nand_write_skip_bad
                0x86874c5c       0x28 arch/arm/cpu/armv7/start.o
 .rel.text.nand_read_skip_bad
                0x86874c84       0x28 arch/arm/cpu/armv7/start.o
 .rel.text.nand_calculate_ecc
                0x86874cac        0x8 arch/arm/cpu/armv7/start.o
 .rel.text.nand_set_defaults
                0x86874cb4       0x88 arch/arm/cpu/armv7/start.o
 .rel.text.nand_fill_oob
                0x86874d3c       0x20 arch/arm/cpu/armv7/start.o
 .rel.text.nand_wait
                0x86874d5c       0x10 arch/arm/cpu/armv7/start.o
 .rel.text.nand_select_chip
                0x86874d6c       0x20 arch/arm/cpu/armv7/start.o
 .rel.text.nand_transfer_oob
                0x86874d8c       0x20 arch/arm/cpu/armv7/start.o
 .rel.text.nand_scan_ident
                0x86874dac       0xa0 arch/arm/cpu/armv7/start.o
 .rel.text.nand_scan_tail
                0x86874e4c      0x158 arch/arm/cpu/armv7/start.o
 .rel.text.mxs_nand_ecc_write_oob
                0x86874fa4        0x8 arch/arm/cpu/armv7/start.o
 .rel.text.mxs_nand_get_dma_desc
                0x86874fac        0x8 arch/arm/cpu/armv7/start.o
 .rel.text.mxs_nand_read_buf
                0x86874fb4       0x18 arch/arm/cpu/armv7/start.o
 .rel.text.mxs_nand_cmd_ctrl
                0x86874fcc       0x10 arch/arm/cpu/armv7/start.o
 .rel.text.mxs_nand_scan_bbt
                0x86874fdc       0x58 arch/arm/cpu/armv7/start.o
 .rel.text.mxs_nand_swap_block_mark
                0x86875034       0x20 arch/arm/cpu/armv7/start.o
 .rel.text.mxs_nand_ecc_read_page
                0x86875054       0x38 arch/arm/cpu/armv7/start.o
 .rel.text.mxs_nand_write_buf
                0x8687508c       0x18 arch/arm/cpu/armv7/start.o
 .rel.text.mxs_nand_ecc_write_page
                0x868750a4       0x10 arch/arm/cpu/armv7/start.o
 .rel.text.mxs_nand_alloc_buffers
                0x868750b4       0x10 arch/arm/cpu/armv7/start.o
 .rel.text.mxs_nand_init
                0x868750c4        0x8 arch/arm/cpu/armv7/start.o
 .rel.text.board_nand_init
                0x868750cc       0x70 arch/arm/cpu/armv7/start.o
 .rel.data.bbt_mirror_descr
                0x8687513c        0x8 arch/arm/cpu/armv7/start.o
 .rel.data.bbt_main_no_oob_descr
                0x86875144        0x8 arch/arm/cpu/armv7/start.o
 .rel.data.bbt_mirror_no_oob_descr
                0x8687514c        0x8 arch/arm/cpu/armv7/start.o
 .rel.data.bbt_main_descr
                0x86875154        0x8 arch/arm/cpu/armv7/start.o
 .rel.data.nand_flash_ids
                0x8687515c      0x288 arch/arm/cpu/armv7/start.o
 .rel.data.nand_manuf_ids
                0x00000000        0x0 arch/arm/cpu/armv7/start.o
 .rel.text.add_to_list
                0x868753e4       0x10 arch/arm/cpu/armv7/start.o
 .rel.text.ubi_attach
                0x868753f4       0xc0 arch/arm/cpu/armv7/start.o
 .rel.text.ubi_enumerate_volumes
                0x00000000        0x0 arch/arm/cpu/armv7/start.o
 .rel.text.ubi_get_device
                0x868754b4        0x8 arch/arm/cpu/armv7/start.o
 .rel.text.ubi_get_by_major
                0x00000000        0x0 arch/arm/cpu/armv7/start.o
 .rel.text.ubi_major2num
                0x00000000        0x0 arch/arm/cpu/armv7/start.o
 .rel.text.ubi_attach_mtd_dev
                0x868754bc       0x68 arch/arm/cpu/armv7/start.o
 .rel.text.ubi_detach_mtd_dev
                0x86875524       0x18 arch/arm/cpu/armv7/start.o
 .rel.text.ubi_init
                0x8687553c       0x28 arch/arm/cpu/armv7/start.o
 .rel.text.ubi_exit
                0x86875564       0x18 arch/arm/cpu/armv7/start.o
 .rel.text.ubi_mtd_param_parse
                0x8687557c       0x18 arch/arm/cpu/armv7/start.o
 .rel.text.vtbl_check
                0x86875594        0x8 arch/arm/cpu/armv7/start.o
 .rel.text.ubi_change_vtbl_record
                0x8687559c       0x28 arch/arm/cpu/armv7/start.o
 .rel.text.ubi_vtbl_rename_volumes
                0x00000000        0x0 arch/arm/cpu/armv7/start.o
 .rel.text.ubi_read_volume_table
                0x868755c4       0x20 arch/arm/cpu/armv7/start.o
 .rel.text.ubi_create_volume
                0x868755e4       0x10 arch/arm/cpu/armv7/start.o
 .rel.text.ubi_add_volume
                0x868755f4       0x10 arch/arm/cpu/armv7/start.o
 .rel.text.ubi_eba_read_leb
                0x86875604        0x8 arch/arm/cpu/armv7/start.o
 .rel.text.ubi_eba_write_leb
                0x8687560c       0x20 arch/arm/cpu/armv7/start.o
 .rel.text.ubi_eba_write_leb_st
                0x8687562c        0x8 arch/arm/cpu/armv7/start.o
 .rel.text.ubi_eba_atomic_leb_change
                0x00000000        0x0 arch/arm/cpu/armv7/start.o
 .rel.text.ubi_io_read
                0x86875634        0x8 arch/arm/cpu/armv7/start.o
 .rel.text.ubi_self_check_all_ff
                0x8687563c        0x8 arch/arm/cpu/armv7/start.o
 .rel.text.ubi_io_write
                0x86875644       0x18 arch/arm/cpu/armv7/start.o
 .rel.text.do_sync_erase
                0x8687565c        0x8 arch/arm/cpu/armv7/start.o
 .rel.text.ubi_io_sync_erase
                0x86875664       0x18 arch/arm/cpu/armv7/start.o
 .rel.text.schedule_erase
                0x8687567c        0x8 arch/arm/cpu/armv7/start.o
 .rel.text.ensure_wear_leveling
                0x86875684        0x8 arch/arm/cpu/armv7/start.o
 .rel.text.erase_worker
                0x8687568c       0x10 arch/arm/cpu/armv7/start.o
 .rel.text.wear_leveling_worker
                0x8687569c        0x8 arch/arm/cpu/armv7/start.o
 .rel.text.ubi_wl_scrub_peb
                0x868756a4        0x8 arch/arm/cpu/armv7/start.o
 .rel.text.ubi_thread
                0x00000000        0x0 arch/arm/cpu/armv7/start.o
 .rel.text.ubi_wl_init
                0x868756ac       0x10 arch/arm/cpu/armv7/start.o
 .rel.text.crc32_le
                0x868756bc        0x8 arch/arm/cpu/armv7/start.o
 .rel.text.ubi_update_reserved
                0x868756c4        0x8 arch/arm/cpu/armv7/start.o
 .rel.text.ubi_dump_flash
                0x868756cc        0x8 arch/arm/cpu/armv7/start.o
 .rel.text.ubi_dump_vol_info
                0x868756d4       0x78 arch/arm/cpu/armv7/start.o
 .rel.text.fec_phy_write
                0x8687574c        0x8 arch/arm/cpu/armv7/start.o
 .rel.text.fec_phy_read
                0x86875754        0x8 arch/arm/cpu/armv7/start.o
 .rel.text.fec_send
                0x8687575c        0x8 arch/arm/cpu/armv7/start.o
 .rel.text.fec_init
                0x86875764        0x8 arch/arm/cpu/armv7/start.o
 .rel.text.fec_recv
                0x8687576c       0x10 arch/arm/cpu/armv7/start.o
 .rel.text.fec_probe
                0x8687577c       0x68 arch/arm/cpu/armv7/start.o
 .rel.text.fec_get_miibus
                0x868757e4       0x30 arch/arm/cpu/armv7/start.o
 .rel.text.phy_device_create
                0x86875814       0x18 arch/arm/cpu/armv7/start.o
 .rel.text.get_phy_device_by_mask
                0x8687582c        0x8 arch/arm/cpu/armv7/start.o
 .rel.text.genphy_update_link
                0x86875834       0x28 arch/arm/cpu/armv7/start.o
 .rel.text.phy_register
                0x8687585c        0x8 arch/arm/cpu/armv7/start.o
 .rel.text.phy_reset
                0x86875864        0x8 arch/arm/cpu/armv7/start.o
 .rel.text.phy_connect_dev
                0x8687586c        0x8 arch/arm/cpu/armv7/start.o
 .rel.text.phy_connect
                0x00000000        0x0 arch/arm/cpu/armv7/start.o
 .rel.text.phy_micrel_init
                0x86875874       0x20 arch/arm/cpu/armv7/start.o
 .rel.data.phy_drivers
                0x86875894       0x10 arch/arm/cpu/armv7/start.o
 .rel.data.genphy_driver
                0x868758a4       0x20 arch/arm/cpu/armv7/start.o
 .rel.data.ksz8895_driver
                0x868758c4       0x20 arch/arm/cpu/armv7/start.o
 .rel.data.KSZ804_driver
                0x868758e4       0x20 arch/arm/cpu/armv7/start.o
 .rel.data.ksz9031_driver
                0x86875904       0x30 arch/arm/cpu/armv7/start.o
 .rel.data.KS8721_driver
                0x86875934       0x20 arch/arm/cpu/armv7/start.o
 .rel.text.get_current
                0x86875954       0x10 arch/arm/cpu/armv7/start.o
 .rel.text.serial_register
                0x86875964        0x8 arch/arm/cpu/armv7/start.o
 .rel.text.serial_stdio_init
                0x8687596c       0x38 arch/arm/cpu/armv7/start.o
 .rel.text.serial_assign
                0x868759a4       0x10 arch/arm/cpu/armv7/start.o
 .rel.text.serial_reinit_all
                0x00000000        0x0 arch/arm/cpu/armv7/start.o
 .rel.text.on_baudrate
                0x868759b4       0x18 arch/arm/cpu/armv7/start.o
 .rel.text.mxc_serial_initialize
                0x868759cc        0x8 arch/arm/cpu/armv7/start.o
 .rel.text.default_serial_console
                0x868759d4        0x8 arch/arm/cpu/armv7/start.o
 .rel.u_boot_list_2_env_clbk_2_baudrate
                0x868759dc       0x10 arch/arm/cpu/armv7/start.o
 .rel.data.mxc_serial_drv
                0x868759ec       0x30 arch/arm/cpu/armv7/start.o
 .rel.text.spi_set_wordlen
                0x00000000        0x0 arch/arm/cpu/armv7/start.o
 .rel.text.is_eth_dev_on_usb_host
                0x00000000        0x0 arch/arm/cpu/armv7/start.o
 .rel.text.usb_host_eth_scan
                0x86875a1c       0x40 arch/arm/cpu/armv7/start.o
 .rel.text.asix_init
                0x86875a5c       0x18 arch/arm/cpu/armv7/start.o
 .rel.text.asix_eth_before_probe
                0x86875a74        0x8 arch/arm/cpu/armv7/start.o
 .rel.text.asix_eth_probe
                0x86875a7c        0x8 arch/arm/cpu/armv7/start.o
 .rel.text.asix_eth_get_info
                0x86875a84       0x40 arch/arm/cpu/armv7/start.o
 .rel.rodata.prob_dev
                0x86875ac4       0x18 arch/arm/cpu/armv7/start.o
 .rel.text.ehci_shutdown
                0x86875adc        0x8 arch/arm/cpu/armv7/start.o
 .rel.text.ehci_td_buffer
                0x86875ae4        0x8 arch/arm/cpu/armv7/start.o
 .rel.text.ehci_submit_async
                0x86875aec       0x30 arch/arm/cpu/armv7/start.o
 .rel.text.disable_periodic.isra.2
                0x86875b1c        0x8 arch/arm/cpu/armv7/start.o
 .rel.text.enable_periodic.isra.3
                0x86875b24        0x8 arch/arm/cpu/armv7/start.o
 .rel.text.ehci_set_usbmode
                0x00000000        0x0 arch/arm/cpu/armv7/start.o
 .rel.text.ehci_submit_root
                0x86875b2c       0x28 arch/arm/cpu/armv7/start.o
 .rel.text.usb_lowlevel_stop
                0x86875b54        0x8 arch/arm/cpu/armv7/start.o
 .rel.text.usb_lowlevel_init
                0x86875b5c       0x20 arch/arm/cpu/armv7/start.o
 .rel.text.create_int_queue
                0x86875b7c       0x10 arch/arm/cpu/armv7/start.o
 .rel.text.destroy_int_queue
                0x86875b8c        0x8 arch/arm/cpu/armv7/start.o
 .rel.text.submit_int_msg
                0x86875b94        0x8 arch/arm/cpu/armv7/start.o
 .rel.text.usb_phy_mode
                0x86875b9c        0x8 arch/arm/cpu/armv7/start.o
 .rel.text.ehci_hcd_init
                0x86875ba4        0x8 arch/arm/cpu/armv7/start.o
 .rel.text.fs_probe_unsupported
                0x86875bac        0x8 arch/arm/cpu/armv7/start.o
 .rel.text.fs_get_info
                0x86875bb4        0x8 arch/arm/cpu/armv7/start.o
 .rel.text.fs_close
                0x86875bbc        0x8 arch/arm/cpu/armv7/start.o
 .rel.text.fs_set_blk_dev
                0x86875bc4       0x28 arch/arm/cpu/armv7/start.o
 .rel.text.fs_uuid
                0x00000000        0x0 arch/arm/cpu/armv7/start.o
 .rel.text.fs_ls
                0x86875bec        0x8 arch/arm/cpu/armv7/start.o
 .rel.text.fs_exists
                0x86875bf4        0x8 arch/arm/cpu/armv7/start.o
 .rel.text.fs_size
                0x86875bfc        0x8 arch/arm/cpu/armv7/start.o
 .rel.text.fs_read
                0x86875c04       0x10 arch/arm/cpu/armv7/start.o
 .rel.text.fs_write
                0x00000000        0x0 arch/arm/cpu/armv7/start.o
 .rel.text.do_size
                0x86875c14        0x8 arch/arm/cpu/armv7/start.o
 .rel.text.do_load
                0x86875c1c       0x48 arch/arm/cpu/armv7/start.o
 .rel.text.do_ls
                0x86875c64        0x8 arch/arm/cpu/armv7/start.o
 .rel.text.do_save
                0x00000000        0x0 arch/arm/cpu/armv7/start.o
 .rel.text.do_fs_uuid
                0x00000000        0x0 arch/arm/cpu/armv7/start.o
 .rel.text.do_fs_type
                0x00000000        0x0 arch/arm/cpu/armv7/start.o
 .rel.text.downcase
                0x86875c6c        0x8 arch/arm/cpu/armv7/start.o
 .rel.text.disk_read
                0x86875c74       0x10 arch/arm/cpu/armv7/start.o
 .rel.text.get_cluster
                0x86875c84        0x8 arch/arm/cpu/armv7/start.o
 .rel.text.read_bootsectandvi
                0x86875c8c       0x20 arch/arm/cpu/armv7/start.o
 .rel.text.get_vfatname
                0x86875cac       0x10 arch/arm/cpu/armv7/start.o
 .rel.text.fat_set_blk_dev
                0x86875cbc       0x28 arch/arm/cpu/armv7/start.o
 .rel.text.fat_register_device
                0x00000000        0x0 arch/arm/cpu/armv7/start.o
 .rel.text.do_fat_read_at
                0x86875ce4       0x58 arch/arm/cpu/armv7/start.o
 .rel.text.file_fat_detectfs
                0x86875d3c       0xb0 arch/arm/cpu/armv7/start.o
 .rel.text.file_fat_read_at
                0x86875dec        0x8 arch/arm/cpu/armv7/start.o
 .rel.text.fat_read_file
                0x86875df4        0x8 arch/arm/cpu/armv7/start.o
 .rel.text.file_getfsname
                0x00000000        0x0 arch/arm/cpu/armv7/start.o
 .rel.text.file_cd
                0x00000000        0x0 arch/arm/cpu/armv7/start.o
 .rel.text.file_detectfs
                0x00000000        0x0 arch/arm/cpu/armv7/start.o
 .rel.text.file_ls
                0x00000000        0x0 arch/arm/cpu/armv7/start.o
 .rel.text.file_read
                0x00000000        0x0 arch/arm/cpu/armv7/start.o
 .rel.text.compr_init
                0x86875dfc        0x8 arch/arm/cpu/armv7/start.o
 .rel.text.ubifs_findfile
                0x86875e04       0x28 arch/arm/cpu/armv7/start.o
 .rel.text.ubifs_decompress
                0x86875e2c        0x8 arch/arm/cpu/armv7/start.o
 .rel.text.ubifs_compressors_init
                0x86875e34       0x18 arch/arm/cpu/armv7/start.o
 .rel.text.ubifs_ls
                0x86875e4c       0x80 arch/arm/cpu/armv7/start.o
 .rel.text.ubifs_load
                0x86875ecc       0x48 arch/arm/cpu/armv7/start.o
 .rel.text.ubifs_alloc_inode
                0x86875f14        0x8 arch/arm/cpu/armv7/start.o
 .rel.text.iput
                0x86875f1c        0x8 arch/arm/cpu/armv7/start.o
 .rel.text.ubifs_iget
                0x86875f24        0x8 arch/arm/cpu/armv7/start.o
 .rel.text.ubifs_umount
                0x86875f2c        0x8 arch/arm/cpu/armv7/start.o
 .rel.text.sget
                0x86875f34        0x8 arch/arm/cpu/armv7/start.o
 .rel.text.ubifs_mount
                0x86875f3c       0x48 arch/arm/cpu/armv7/start.o
 .rel.text.ubifs_init
                0x86875f84        0x8 arch/arm/cpu/armv7/start.o
 .rel.text.uboot_ubifs_mount
                0x86875f8c       0x18 arch/arm/cpu/armv7/start.o
 .rel.text.ubifs_read_superblock
                0x86875fa4       0x18 arch/arm/cpu/armv7/start.o
 .rel.text.ubifs_unpack_bits
                0x86875fbc       0x40 arch/arm/cpu/armv7/start.o
 .rel.text.lpt_gc
                0x00000000        0x0 arch/arm/cpu/armv7/start.o
 .rel.text.ubifs_scan
                0x86875ffc       0x28 arch/arm/cpu/armv7/start.o
 .rel.text.ubifs_add_to_cat
                0x86876024       0x38 arch/arm/cpu/armv7/start.o
 .rel.text.dirty_cow_znode
                0x8687605c        0x8 arch/arm/cpu/armv7/start.o
 .rel.text.tnc_delete
                0x86876064        0x8 arch/arm/cpu/armv7/start.o
 .rel.text.ubifs_tnc_add_nm
                0x8687606c        0x8 arch/arm/cpu/armv7/start.o
 .rel.text.ubifs_tnc_close
                0x86876074        0x8 arch/arm/cpu/armv7/start.o
 .rel.text.ubifs_tnc_has_node
                0x00000000        0x0 arch/arm/cpu/armv7/start.o
 .rel.text.ubifs_load_znode
                0x8687607c        0x8 arch/arm/cpu/armv7/start.o
 .rel.text.dbg_snprintf_key
                0x00000000        0x0 arch/arm/cpu/armv7/start.o
 .rel.text.dbg_ntype
                0x00000000        0x0 arch/arm/cpu/armv7/start.o
 .rel.text.dbg_cstate
                0x00000000        0x0 arch/arm/cpu/armv7/start.o
 .rel.text.dbg_jhead
                0x00000000        0x0 arch/arm/cpu/armv7/start.o
 .rel.text.ubifs_dump_index
                0x00000000        0x0 arch/arm/cpu/armv7/start.o
 .rel.text.crc16
                0x86876084        0x8 arch/arm/cpu/armv7/start.o
 .rel.text.ubifs_replay_journal
                0x8687608c       0x30 arch/arm/cpu/armv7/start.o
 .rel.rodata.filesystems
                0x00000000        0x0 arch/arm/cpu/armv7/start.o
 .rel.rodata.ubifs_super_operations
                0x868760bc       0x10 arch/arm/cpu/armv7/start.o
 .rel.rodata.CSWTCH.39
                0x00000000        0x0 arch/arm/cpu/armv7/start.o
 .rel.rodata.CSWTCH.46
                0x00000000        0x0 arch/arm/cpu/armv7/start.o
 .rel.rodata.CSWTCH.48
                0x00000000        0x0 arch/arm/cpu/armv7/start.o
 .rel.rodata.CSWTCH.44
                0x00000000        0x0 arch/arm/cpu/armv7/start.o
 .rel.data.fstypes
                0x868760cc       0x90 arch/arm/cpu/armv7/start.o
 .rel.data.lzo_compr
                0x8687615c       0x18 arch/arm/cpu/armv7/start.o
 .rel.data.none_compr
                0x86876174       0x10 arch/arm/cpu/armv7/start.o
 .rel.data.zlib_compr
                0x86876184       0x18 arch/arm/cpu/armv7/start.o
 .rel.data.ubifs_fs_type
                0x8687619c       0x18 arch/arm/cpu/armv7/start.o
 .rel.data.super_blocks
                0x868761b4       0x10 arch/arm/cpu/armv7/start.o
 .rel.text.lzop_decompress
                0x868761c4        0x8 arch/arm/cpu/armv7/start.o
 .rel.text.inflate_fast
                0x868761cc       0x18 arch/arm/cpu/armv7/start.o
 .rel.text.inflate_table
                0x868761e4       0x20 arch/arm/cpu/armv7/start.o
 .rel.text.inflateInit2_
                0x86876204       0x10 arch/arm/cpu/armv7/start.o
 .rel.text.inflate
                0x86876214      0x188 arch/arm/cpu/armv7/start.o
 .rel.text.fdt_next_tag
                0x8687639c       0x48 arch/arm/cpu/armv7/start.o
 .rel.text.fdt_get_phandle
                0x00000000        0x0 arch/arm/cpu/armv7/start.o
 .rel.text.fdt_get_alias_namelen
                0x868763e4        0x8 arch/arm/cpu/armv7/start.o
 .rel.text.fdt_node_check_compatible
                0x00000000        0x0 arch/arm/cpu/armv7/start.o
 .rel.text.fdt_strerror
                0x868763ec       0x20 arch/arm/cpu/armv7/start.o
 .rel.text.fdt_find_regions
                0x00000000        0x0 arch/arm/cpu/armv7/start.o
 .rel.text.fdt_create_empty_tree
                0x00000000        0x0 arch/arm/cpu/armv7/start.o
 .rel.text.fdt_address_cells
                0x8687640c        0x8 arch/arm/cpu/armv7/start.o
 .rel.text.fdt_size_cells
                0x86876414        0x8 arch/arm/cpu/armv7/start.o
 .rel.text.crc7
                0x00000000        0x0 arch/arm/cpu/armv7/start.o
 .rel.text.cyg_crc16
                0x8687641c        0x8 arch/arm/cpu/armv7/start.o
 .rel.text.zunzip
                0x86876424       0x28 arch/arm/cpu/armv7/start.o
 .rel.text.gunzip
                0x8687644c       0x10 arch/arm/cpu/armv7/start.o
 .rel.text.initcall_run_list
                0x8687645c        0x8 arch/arm/cpu/armv7/start.o
 .rel.text.lmb_alloc_base
                0x86876464        0x8 arch/arm/cpu/armv7/start.o
 .rel.text.strmhz
                0x00000000        0x0 arch/arm/cpu/armv7/start.o
 .rel.text.list_sort
                0x8687646c        0x8 arch/arm/cpu/armv7/start.o
 .rel.text.match_string.isra.3
                0x86876474        0x8 arch/arm/cpu/armv7/start.o
 .rel.text.hcreate_r
                0x8687647c        0x8 arch/arm/cpu/armv7/start.o
 .rel.text.hdestroy_r
                0x86876484        0x8 arch/arm/cpu/armv7/start.o
 .rel.text.hmatch_r
                0x8687648c        0x8 arch/arm/cpu/armv7/start.o
 .rel.text.hsearch_r
                0x86876494        0x8 arch/arm/cpu/armv7/start.o
 .rel.text.hdelete_r
                0x8687649c        0x8 arch/arm/cpu/armv7/start.o
 .rel.text.hexport_r
                0x868764a4       0x18 arch/arm/cpu/armv7/start.o
 .rel.text.himport_r
                0x868764bc       0x20 arch/arm/cpu/armv7/start.o
 .rel.text.display_options
                0x868764dc       0x10 arch/arm/cpu/armv7/start.o
 .rel.text.print_size
                0x868764ec       0x28 arch/arm/cpu/armv7/start.o
 .rel.text.print_buffer
                0x86876514       0x28 arch/arm/cpu/armv7/start.o
 .rel.text.crc32_no_comp
                0x8687653c        0x8 arch/arm/cpu/armv7/start.o
 .rel.text.hang
                0x86876544        0x8 arch/arm/cpu/armv7/start.o
 .rel.text.skip_spaces
                0x8687654c        0x8 arch/arm/cpu/armv7/start.o
 .rel.text.strim
                0x86876554        0x8 arch/arm/cpu/armv7/start.o
 .rel.text.strncasecmp
                0x00000000        0x0 arch/arm/cpu/armv7/start.o
 .rel.text.strtok
                0x00000000        0x0 arch/arm/cpu/armv7/start.o
 .rel.text.string
                0x8687655c        0x8 arch/arm/cpu/armv7/start.o
 .rel.text.number
                0x86876564        0x8 arch/arm/cpu/armv7/start.o
 .rel.text.vsnprintf_internal
                0x8687656c       0x10 arch/arm/cpu/armv7/start.o
 .rel.text.simple_strtoul
                0x8687657c        0x8 arch/arm/cpu/armv7/start.o
 .rel.text.simple_strtoull
                0x86876584        0x8 arch/arm/cpu/armv7/start.o
 .rel.text.__assert_fail
                0x00000000        0x0 arch/arm/cpu/armv7/start.o
 .rel.text.simple_itoa
                0x8687658c        0x8 arch/arm/cpu/armv7/start.o
 .rel.text.print_grouped_ull
                0x00000000        0x0 arch/arm/cpu/armv7/start.o
 .rel.rodata.z_errmsg
                0x00000000        0x0 arch/arm/cpu/armv7/start.o
 .rel.rodata.fdt_errtable
                0x86876594       0x58 arch/arm/cpu/armv7/start.o
 .rel.data.current
                0x00000000        0x0 arch/arm/cpu/armv7/start.o
 .rel.text.ArpInit
                0x868765ec       0x30 arch/arm/cpu/armv7/start.o
 .rel.text.arp_raw_request
                0x8687661c       0x18 arch/arm/cpu/armv7/start.o
 .rel.text.ArpRequest
                0x86876634       0x38 arch/arm/cpu/armv7/start.o
 .rel.text.ArpTimeoutCheck
                0x8687666c       0x20 arch/arm/cpu/armv7/start.o
 .rel.text.ArpReceive
                0x8687668c       0x40 arch/arm/cpu/armv7/start.o
 .rel.text.DhcpOptionsProcess
                0x868766cc       0x68 arch/arm/cpu/armv7/start.o
 .rel.text.DhcpHandler
                0x86876734       0x88 arch/arm/cpu/armv7/start.o
 .rel.text.BootpReset
                0x868767bc       0x20 arch/arm/cpu/armv7/start.o
 .rel.text.BootpRequest
                0x868767dc       0x60 arch/arm/cpu/armv7/start.o
 .rel.text.BootpTimeout
                0x8687683c       0x20 arch/arm/cpu/armv7/start.o
 .rel.text.eth_current_changed
                0x8687685c       0x10 arch/arm/cpu/armv7/start.o
 .rel.text.eth_setenv_enetaddr
                0x8687686c        0x8 arch/arm/cpu/armv7/start.o
 .rel.text.eth_getenv_enetaddr_by_index
                0x86876874       0x10 arch/arm/cpu/armv7/start.o
 .rel.text.eth_get_dev_by_name
                0x00000000        0x0 arch/arm/cpu/armv7/start.o
 .rel.text.eth_get_dev_by_index
                0x86876884        0x8 arch/arm/cpu/armv7/start.o
 .rel.text.eth_get_dev_index
                0x8687688c        0x8 arch/arm/cpu/armv7/start.o
 .rel.text.eth_write_hwaddr
                0x86876894       0x60 arch/arm/cpu/armv7/start.o
 .rel.text.eth_register
                0x868768f4       0x18 arch/arm/cpu/armv7/start.o
 .rel.text.eth_unregister
                0x8687690c       0x10 arch/arm/cpu/armv7/start.o
 .rel.text.eth_initialize
                0x8687691c       0x88 arch/arm/cpu/armv7/start.o
 .rel.text.eth_halt
                0x868769a4        0x8 arch/arm/cpu/armv7/start.o
 .rel.text.eth_send
                0x868769ac        0x8 arch/arm/cpu/armv7/start.o
 .rel.text.eth_rx
                0x868769b4        0x8 arch/arm/cpu/armv7/start.o
 .rel.text.eth_try_another
                0x868769bc       0x28 arch/arm/cpu/armv7/start.o
 .rel.text.eth_init
                0x868769e4       0x20 arch/arm/cpu/armv7/start.o
 .rel.text.eth_set_current
                0x86876a04       0x20 arch/arm/cpu/armv7/start.o
 .rel.text.eth_get_name
                0x86876a24       0x10 arch/arm/cpu/armv7/start.o
 .rel.text.startAgainTimeout
                0x86876a34        0x8 arch/arm/cpu/armv7/start.o
 .rel.text.net_clear_handlers
                0x86876a3c       0x20 arch/arm/cpu/armv7/start.o
 .rel.text.net_auto_load
                0x86876a5c       0x18 arch/arm/cpu/armv7/start.o
 .rel.text.NetStartAgain
                0x86876a74       0x78 arch/arm/cpu/armv7/start.o
 .rel.text.net_get_udp_handler
                0x00000000        0x0 arch/arm/cpu/armv7/start.o
 .rel.text.net_set_udp_handler
                0x86876aec       0x10 arch/arm/cpu/armv7/start.o
 .rel.text.net_get_arp_handler
                0x86876afc        0x8 arch/arm/cpu/armv7/start.o
 .rel.text.net_set_arp_handler
                0x00000000        0x0 arch/arm/cpu/armv7/start.o
 .rel.text.NetSetTimeout
                0x86876b04       0x18 arch/arm/cpu/armv7/start.o
 .rel.text.NetReceive
                0x86876b1c       0x38 arch/arm/cpu/armv7/start.o
 .rel.text.NetEthHdrSize
                0x86876b54        0x8 arch/arm/cpu/armv7/start.o
 .rel.text.NetSetEther
                0x86876b5c       0x10 arch/arm/cpu/armv7/start.o
 .rel.text.net_update_ether
                0x86876b6c        0x8 arch/arm/cpu/armv7/start.o
 .rel.text.net_set_ip_header
                0x86876b74        0x8 arch/arm/cpu/armv7/start.o
 .rel.text.net_set_udp_header
                0x86876b7c        0x8 arch/arm/cpu/armv7/start.o
 .rel.text.NetSendUDPPacket
                0x86876b84       0x40 arch/arm/cpu/armv7/start.o
 .rel.text.on_bootfile
                0x86876bc4        0x8 arch/arm/cpu/armv7/start.o
 .rel.text.ip_to_string
                0x86876bcc        0x8 arch/arm/cpu/armv7/start.o
 .rel.text.VLAN_to_string
                0x00000000        0x0 arch/arm/cpu/armv7/start.o
 .rel.text.NetInitLoop
                0x86876bd4       0x78 arch/arm/cpu/armv7/start.o
 .rel.text.net_init
                0x86876c4c       0x20 arch/arm/cpu/armv7/start.o
 .rel.text.NetLoop
                0x86876c6c      0x180 arch/arm/cpu/armv7/start.o
 .rel.text.rpc_lookup_reply
                0x86876dec       0x18 arch/arm/cpu/armv7/start.o
 .rel.text.nfs_mount_reply
                0x86876e04       0x18 arch/arm/cpu/armv7/start.o
 .rel.text.nfs_umountall_reply
                0x86876e1c       0x18 arch/arm/cpu/armv7/start.o
 .rel.text.nfs_lookup_reply
                0x86876e34       0x10 arch/arm/cpu/armv7/start.o
 .rel.text.nfs_readlink_reply
                0x86876e44       0x18 arch/arm/cpu/armv7/start.o
 .rel.text.rpc_add_credentials
                0x86876e5c        0x8 arch/arm/cpu/armv7/start.o
 .rel.text.rpc_req
                0x86876e64       0x38 arch/arm/cpu/armv7/start.o
 .rel.text.nfs_umountall_req
                0x86876e9c       0x10 arch/arm/cpu/armv7/start.o
 .rel.text.nfs_lookup_req
                0x86876eac        0x8 arch/arm/cpu/armv7/start.o
 .rel.text.nfs_read_req
                0x86876eb4        0x8 arch/arm/cpu/armv7/start.o
 .rel.text.nfs_readlink_req
                0x86876ebc        0x8 arch/arm/cpu/armv7/start.o
 .rel.text.nfs_read_reply.isra.0
                0x86876ec4       0x28 arch/arm/cpu/armv7/start.o
 .rel.text.NfsSend
                0x86876eec       0x60 arch/arm/cpu/armv7/start.o
 .rel.text.NfsHandler
                0x86876f4c       0xa8 arch/arm/cpu/armv7/start.o
 .rel.text.NfsTimeout
                0x86876ff4       0x20 arch/arm/cpu/armv7/start.o
 .rel.text.NfsStart
                0x86877014       0xe0 arch/arm/cpu/armv7/start.o
 .rel.text.ping_timeout
                0x868770f4        0x8 arch/arm/cpu/armv7/start.o
 .rel.text.ping_start
                0x868770fc       0x58 arch/arm/cpu/armv7/start.o
 .rel.text.ping_receive
                0x86877154       0x18 arch/arm/cpu/armv7/start.o
 .rel.text.TftpSend
                0x8687716c       0xb8 arch/arm/cpu/armv7/start.o
 .rel.text.TftpHandler
                0x86877224       0xc0 arch/arm/cpu/armv7/start.o
 .rel.text.TftpTimeout
                0x868772e4       0x40 arch/arm/cpu/armv7/start.o
 .rel.text.TftpStart
                0x86877324      0x130 arch/arm/cpu/armv7/start.o
 .rel.u_boot_list_2_env_clbk_2_bootfile
                0x86877454       0x10 arch/arm/cpu/armv7/start.o
 .rel.text.do_dm
                0x86877464        0x8 arch/arm/cpu/armv7/start.o
 .rel.text.do_dm_dump_uclass
                0x8687746c       0x20 arch/arm/cpu/armv7/start.o
 .rel.text.show_devices
                0x8687748c       0x30 arch/arm/cpu/armv7/start.o
 .rel.text.do_dm_dump_all
                0x868774bc       0x10 arch/arm/cpu/armv7/start.o
 .rel.u_boot_list_2_cmd_2_dm
                0x868774cc       0x20 arch/arm/cpu/armv7/start.o
 .rel.data.test_commands
                0x868774ec       0x40 arch/arm/cpu/armv7/start.o
 .rel.text.raise
                0x8687752c        0x8 arch/arm/cpu/armv7/start.o

.rel_dyn_end    0x86877534        0x0
 *(.__rel_dyn_end)
 .__rel_dyn_end
                0x86877534        0x0 arch/arm/lib/built-in.o

.end            0x86877534        0x0
 *(.__end)
 .__end         0x86877534        0x0 arch/arm/lib/built-in.o
                0x86877534                _image_binary_end = .
                0x86878000                . = ALIGN (0x1000)

.mmutable
 *(.mmutable)

.bss_start      0x8686df14        0x0
 *(.__bss_start)
 .__bss_start   0x8686df14        0x0 arch/arm/lib/built-in.o
                0x8686df14                __bss_start
                0x8686df14                __bss_base = .

.bss            0x8686df14    0x4f8f0
 *(.bss*)
 .bss.modes     0x8686df14        0x8 arch/arm/imx-common/built-in.o
 .bss.params    0x8686df1c        0x4 arch/arm/lib/built-in.o
 .bss.value.10524
                0x8686df20        0x4 board/freescale/mx6g2c/built-in.o
 .bss.flag_repeat
                0x8686df24        0x4 common/built-in.o
 .bss.buf.7204  0x8686df28       0x28 common/built-in.o
 .bss.ifs       0x8686df50        0x4 common/built-in.o
 .bss.last_return_code
                0x8686df54        0x4 common/built-in.o
 .bss.map       0x8686df58      0x100 common/built-in.o
 .bss.do_repeat
                0x8686e058        0x4 common/built-in.o
 .bss.the_command.7004
                0x8686e05c      0x401 common/built-in.o
 *fill*         0x8686e45d        0x3 
 .bss.top_vars  0x8686e460        0x4 common/built-in.o
 .bss.stored_bootdelay
                0x8686e464        0x4 common/built-in.o
 .bss.monitor_flash_len
                0x8686e468        0x4 common/built-in.o
                0x8686e468                monitor_flash_len
 .bss.images    0x8686e46c      0x130 common/built-in.o
                0x8686e46c                images
 .bss.callback_list
                0x8686e59c        0x4 common/built-in.o
 .bss.flags_list
                0x8686e5a0        0x4 common/built-in.o
 .bss.working_fdt
                0x8686e5a4        0x4 common/built-in.o
                0x8686e5a4                working_fdt
 .bss.data.7543
                0x8686e5a8      0x400 common/built-in.o
 .bss.i2c_mm_last_chip
                0x8686e9a8        0x4 common/built-in.o
 .bss.i2c_mm_last_alen
                0x8686e9ac        0x4 common/built-in.o
 .bss.i2c_mm_last_addr
                0x8686e9b0        0x4 common/built-in.o
 .bss.i2c_dp_last_chip
                0x8686e9b4        0x4 common/built-in.o
 .bss.i2c_dp_last_addr
                0x8686e9b8        0x4 common/built-in.o
 .bss.i2c_dp_last_alen
                0x8686e9bc        0x4 common/built-in.o
 .bss.send_parms
                0x8686e9c0       0x14 common/built-in.o
 .bss.os_data_init
                0x8686e9d4        0x4 common/built-in.o
 .bss.os_data_addr_saved
                0x8686e9d8        0x4 common/built-in.o
 .bss.his_pad_char
                0x8686e9dc        0x1 common/built-in.o
 .bss.a_b       0x8686e9dd       0x18 common/built-in.o
 *fill*         0x8686e9f5        0x3 
 .bss.os_data_char
                0x8686e9f8        0x4 common/built-in.o
 .bss.os_data_state
                0x8686e9fc        0x4 common/built-in.o
 .bss.k_data_escape
                0x8686ea00        0x4 common/built-in.o
 .bss.os_data_state_saved
                0x8686ea04        0x4 common/built-in.o
 .bss.os_data_addr
                0x8686ea08        0x4 common/built-in.o
 .bss.send_ptr  0x8686ea0c        0x4 common/built-in.o
 .bss.bin_start_address
                0x8686ea10        0x4 common/built-in.o
 .bss.his_quote
                0x8686ea14        0x1 common/built-in.o
 *fill*         0x8686ea15        0x3 
 .bss.his_pad_count
                0x8686ea18        0x4 common/built-in.o
 .bss.his_eol   0x8686ea1c        0x1 common/built-in.o
 *fill*         0x8686ea1d        0x3 
 .bss.k_data_escape_saved
                0x8686ea20        0x4 common/built-in.o
 .bss.dp_last_addr
                0x8686ea24        0x4 common/built-in.o
 .bss.base_address
                0x8686ea28        0x4 common/built-in.o
 .bss.mm_last_size
                0x8686ea2c        0x4 common/built-in.o
 .bss.mm_last_addr
                0x8686ea30        0x4 common/built-in.o
 .bss.dp_last_size
                0x8686ea34        0x4 common/built-in.o
 .bss.current_mii
                0x8686ea38        0x4 common/built-in.o
 .bss.mii_devs  0x8686ea3c        0x8 common/built-in.o
 .bss.last_data
                0x8686ea44        0x8 common/built-in.o
 .bss.last_reg_hi
                0x8686ea4c        0x8 common/built-in.o
 .bss.last_addr_lo
                0x8686ea54        0x8 common/built-in.o
 .bss.last_op   0x8686ea5c        0x4 common/built-in.o
 .bss.last_addr_hi
                0x8686ea60        0x8 common/built-in.o
 .bss.last_reg_lo
                0x8686ea68        0x8 common/built-in.o
 .bss.last_devad_hi
                0x8686ea70        0x4 common/built-in.o
 .bss.last_devad_lo
                0x8686ea74        0x4 common/built-in.o
 .bss.last_ids  0x8686ea78       0x80 common/built-in.o
 .bss.current_mtd_dev
                0x8686eaf8        0x4 common/built-in.o
                0x8686eaf8                current_mtd_dev
 .bss.last_partition
                0x8686eafc       0x10 common/built-in.o
 .bss.last_parts
                0x8686eb0c      0x200 common/built-in.o
 .bss.initialized.8330
                0x8686ed0c        0x4 common/built-in.o
 .bss.current_mtd_partnum
                0x8686ed10        0x1 common/built-in.o
                0x8686ed10                current_mtd_partnum
 *fill*         0x8686ed11        0x3 
 .bss.mtdids    0x8686ed14        0x8 common/built-in.o
 .bss.devices   0x8686ed1c        0x8 common/built-in.o
 *fill*         0x8686ed24        0x4 
 .bss.last.8079
                0x8686ed28        0x8 common/built-in.o
 .bss.ubi       0x8686ed30        0x4 common/built-in.o
 .bss.ubi_dev   0x8686ed34       0x5c common/built-in.o
 .bss.ubi_initialized
                0x8686ed90        0x4 common/built-in.o
 .bss.buffer    0x8686ed94       0x50 common/built-in.o
 .bss.ubifs_initialized
                0x8686ede4        0x4 common/built-in.o
 .bss.ubifs_mounted
                0x8686ede8        0x4 common/built-in.o
 .bss.dev_index
                0x8686edec        0x4 common/built-in.o
 *fill*         0x8686edf0       0x10 
 .bss.usb_dev   0x8686ee00    0x13000 common/built-in.o
 .bss.asynch_allowed
                0x86881e00        0x4 common/built-in.o
 .bss.usb_started
                0x86881e04        0x1 common/built-in.o
                0x86881e04                usb_started
 *fill*         0x86881e05        0x3 
 .bss.usb_hub_index
                0x86881e08        0x4 common/built-in.o
 .bss.hub_dev   0x86881e0c      0x100 common/built-in.o
 .bss.usb_stor  0x86881f0c      0x104 common/built-in.o
 .bss.usb_dev_desc
                0x86882010      0x244 common/built-in.o
 .bss.usb_max_devs
                0x86882254        0x4 common/built-in.o
 .bss.CBWTag    0x86882258        0x4 common/built-in.o
 *fill*         0x8688225c       0x24 
 .bss.usb_ccb   0x86882280       0xc0 common/built-in.o
 .bss.ctrlc_was_pressed
                0x86882340        0x4 common/built-in.o
 .bss.ctrlc_disabled
                0x86882344        0x4 common/built-in.o
 .bss.max_total_mem
                0x86882348        0x4 common/built-in.o
 .bss.mem_malloc_brk
                0x8688234c        0x4 common/built-in.o
                0x8688234c                mem_malloc_brk
 .bss.max_sbrked_mem
                0x86882350        0x4 common/built-in.o
 .bss.current_mallinfo
                0x86882354       0x28 common/built-in.o
 .bss.mem_malloc_end
                0x8688237c        0x4 common/built-in.o
                0x8688237c                mem_malloc_end
 .bss.top_pad   0x86882380        0x4 common/built-in.o
 .bss.mem_malloc_start
                0x86882384        0x4 common/built-in.o
                0x86882384                mem_malloc_start
 .bss.devs      0x86882388       0x4c common/built-in.o
 .bss.stdio_devices
                0x868823d4        0xc common/built-in.o
                0x868823d4                stdio_devices
 .bss.hist_list
                0x868823e0       0x50 common/built-in.o
 .bss.hist_lines
                0x86882430     0x5014 common/built-in.o
 .bss.hist_max  0x86887444        0x4 common/built-in.o
 .bss.hist_add_idx
                0x86887448        0x4 common/built-in.o
 .bss.initted.6883
                0x8688744c        0x4 common/built-in.o
 .bss.hist_num  0x86887450        0x4 common/built-in.o
 .bss.console_buffer
                0x86887454      0x401 common/built-in.o
                0x86887454                console_buffer
 .bss.tmp_buf.6768
                0x86887855      0x200 common/built-in.o
 .bss.tmp_buf   0x86887a55      0x400 common/built-in.o
 *fill*         0x86887e55        0x3 
 .bss.xyz       0x86887e58      0x434 common/built-in.o
 .bss.video_console_address
                0x8688828c        0x4 drivers/built-in.o
 .bss.cfb_do_flush_cache
                0x86888290        0x4 drivers/built-in.o
 .bss.video_logo_xpos
                0x86888294        0x4 drivers/built-in.o
 .bss.console_row
                0x86888298        0x4 drivers/built-in.o
 .bss.eorx      0x8688829c        0x4 drivers/built-in.o
 .bss.bgx       0x868882a0        0x4 drivers/built-in.o
 .bss.console_col
                0x868882a4        0x4 drivers/built-in.o
 .bss.video_fb_address
                0x868882a8        0x4 drivers/built-in.o
 .bss.video_logo_ypos
                0x868882ac        0x4 drivers/built-in.o
 .bss.pGD       0x868882b0        0x4 drivers/built-in.o
 .bss.fgx       0x868882b4        0x4 drivers/built-in.o
 .bss.fbmode    0x868882b8       0x38 drivers/built-in.o
 .bss.panel     0x868882f0       0x90 drivers/built-in.o
 .bss.setup     0x86888380        0x4 drivers/built-in.o
 .bss.depth     0x86888384        0x4 drivers/built-in.o
 .bss.mxs_dma_channels
                0x86888388      0x140 drivers/dma/built-in.o
 .bss.mmc_devices
                0x868884c8        0x8 drivers/mmc/built-in.o
 .bss.mtd_idr   0x868884d0      0x200 drivers/mtd/built-in.o
 .bss.nand_info
                0x868886d0       0xc8 drivers/mtd/nand/built-in.o
                0x868886d0                nand_info
 .bss.nand_chip
                0x86888798      0x438 drivers/mtd/nand/built-in.o
 .bss.total_nand_size
                0x86888bd0        0x4 drivers/mtd/nand/built-in.o
 .bss.dev_name  0x86888bd4        0x8 drivers/mtd/nand/built-in.o
 .bss.ecc_strength
                0x86888bdc        0x4 drivers/mtd/nand/built-in.o
                0x86888bdc                ecc_strength
 .bss.ecc_for_meta
                0x86888be0        0x1 drivers/mtd/nand/built-in.o
                0x86888be0                ecc_for_meta
 .bss.large_oob_flag
                0x86888be1        0x1 drivers/mtd/nand/built-in.o
                0x86888be1                large_oob_flag
 *fill*         0x86888be2        0x2 
 .bss.bbm_chunk
                0x86888be4        0x4 drivers/mtd/nand/built-in.o
                0x86888be4                bbm_chunk
 .bss.fake_ecc_layout
                0x86888be8      0xb08 drivers/mtd/nand/built-in.o
                0x86888be8                fake_ecc_layout
 .bss.vidh      0x868896f0        0x4 drivers/mtd/ubi/built-in.o
 .bss.ech       0x868896f4        0x4 drivers/mtd/ubi/built-in.o
 .bss.mtd_devs  0x868896f8        0x4 drivers/mtd/ubi/built-in.o
 .bss.ubi_class
                0x868896fc        0x4 drivers/mtd/ubi/built-in.o
                0x868896fc                ubi_class
 .bss.ubi_wl_entry_slab
                0x86889700        0x4 drivers/mtd/ubi/built-in.o
                0x86889700                ubi_wl_entry_slab
 .bss.ubi_devices
                0x86889704       0x80 drivers/mtd/ubi/built-in.o
                0x86889704                ubi_devices
 .bss.mtd_dev_param
                0x86889784      0x980 drivers/mtd/ubi/built-in.o
 .bss.empty_vtbl_record
                0x8688a104       0xac drivers/mtd/ubi/built-in.o
 .bss.serial_devices
                0x8688a1b0        0x4 drivers/serial/built-in.o
 .bss.serial_current
                0x8688a1b4        0x4 drivers/serial/built-in.o
 .bss.usb_eth   0x8688a1b8      0x1a4 drivers/usb/eth/built-in.o
 .bss.usb_max_eth_dev
                0x8688a35c        0x4 drivers/usb/eth/built-in.o
 .bss.curr_eth_dev
                0x8688a360        0x4 drivers/usb/eth/built-in.o
 *fill*         0x8688a364       0x1c 
 .bss.ehcic     0x8688a380      0x280 drivers/usb/host/built-in.o
 .bss.fs_partition
                0x8688a600       0x50 fs/built-in.o
 .bss.fs_type   0x8688a650        0x4 fs/built-in.o
 .bss.fs_dev_desc
                0x8688a654        0x4 fs/built-in.o
 *fill*         0x8688a658       0x28 
 .bss.do_fat_read_at_block
                0x8688a680    0x10000 fs/built-in.o
                0x8688a680                do_fat_read_at_block
 .bss.get_dentfromdir_block
                0x8689a680    0x10000 fs/built-in.o
                0x8689a680                get_dentfromdir_block
 .bss.cur_part_info
                0x868aa680       0x50 fs/built-in.o
 *fill*         0x868aa6d0       0x30 
 .bss.get_contents_vfatname_block
                0x868aa700    0x10000 fs/built-in.o
                0x868aa700                get_contents_vfatname_block
 .bss.cur_dev   0x868ba700        0x4 fs/built-in.o
 .bss.ubifs_compressors
                0x868ba704        0xc fs/built-in.o
                0x868ba704                ubifs_compressors
 .bss.ubifs_clean_zn_cnt
                0x868ba710        0x4 fs/built-in.o
                0x868ba710                ubifs_clean_zn_cnt
 .bss.ubifs_sb  0x868ba714        0x4 fs/built-in.o
                0x868ba714                ubifs_sb
 .bss.inodes_locked_down
                0x868ba718      0x100 fs/built-in.o
 .bss.ubifs_inode_slab
                0x868ba818        0x4 fs/built-in.o
                0x868ba818                ubifs_inode_slab
 .bss.errno     0x868ba81c        0x4 lib/built-in.o
                0x868ba81c                errno
 .bss.local.7020
                0x868ba820       0x16 lib/built-in.o
 *fill*         0x868ba836        0x2 
 .bss.NetArpWaitPacketIP
                0x868ba838        0x4 net/built-in.o
                0x868ba838                NetArpWaitPacketIP
 .bss.NetArpWaitTimerStart
                0x868ba83c        0x4 net/built-in.o
                0x868ba83c                NetArpWaitTimerStart
 .bss.NetArpWaitReplyIP
                0x868ba840        0x4 net/built-in.o
 .bss.NetArpWaitTxPacketSize
                0x868ba844        0x4 net/built-in.o
                0x868ba844                NetArpWaitTxPacketSize
 .bss.NetArpWaitTry
                0x868ba848        0x4 net/built-in.o
                0x868ba848                NetArpWaitTry
 .bss.NetArpTxPacket
                0x868ba84c        0x4 net/built-in.o
 .bss.NetArpPacketBuf
                0x868ba850      0x640 net/built-in.o
 .bss.NetArpWaitPacketMAC
                0x868bae90        0x4 net/built-in.o
                0x868bae90                NetArpWaitPacketMAC
 .bss.dhcp_state
                0x868bae94        0x4 net/built-in.o
 .bss.BootpTry  0x868bae98        0x4 net/built-in.o
                0x868bae98                BootpTry
 .bss.NetDHCPServerIP
                0x868bae9c        0x4 net/built-in.o
 .bss.bootp_timeout
                0x868baea0        0x4 net/built-in.o
                0x868baea0                bootp_timeout
 .bss.bootp_ids
                0x868baea4       0x10 net/built-in.o
                0x868baea4                bootp_ids
 .bss.bootp_num_ids
                0x868baeb4        0x4 net/built-in.o
                0x868baeb4                bootp_num_ids
 .bss.bootp_start
                0x868baeb8        0x4 net/built-in.o
                0x868baeb8                bootp_start
 .bss.dhcp_leasetime
                0x868baebc        0x4 net/built-in.o
 .bss.act.7279  0x868baec0        0x4 net/built-in.o
 .bss.eth_current
                0x868baec4        0x4 net/built-in.o
                0x868baec4                eth_current
 .bss.first_failed.7274
                0x868baec8        0x4 net/built-in.o
 .bss.index.7227
                0x868baecc        0x4 net/built-in.o
 .bss.eth_devices
                0x868baed0        0x4 net/built-in.o
 .bss.env_changed_id.7280
                0x868baed4        0x4 net/built-in.o
 .bss.NetOurEther
                0x868baed8        0x6 net/built-in.o
                0x868baed8                NetOurEther
 *fill*         0x868baede        0x2 
 .bss.NetServerIP
                0x868baee0        0x4 net/built-in.o
                0x868baee0                NetServerIP
 .bss.NetRestarted
                0x868baee4        0x4 net/built-in.o
 .bss.net_state
                0x868baee8        0x4 net/built-in.o
                0x868baee8                net_state
 .bss.NetOurRootPath
                0x868baeec       0x40 net/built-in.o
                0x868baeec                NetOurRootPath
 .bss.NetRxPackets
                0x868baf2c       0x10 net/built-in.o
                0x868baf2c                NetRxPackets
 .bss.NetBootFileSize
                0x868baf3c        0x2 net/built-in.o
                0x868baf3c                NetBootFileSize
 .bss.NetEtherNullAddr
                0x868baf3e        0x6 net/built-in.o
                0x868baf3e                NetEtherNullAddr
 .bss.NetRxPacket
                0x868baf44        0x4 net/built-in.o
                0x868baf44                NetRxPacket
 .bss.udp_packet_handler
                0x868baf48        0x4 net/built-in.o
 .bss.NetDevExists
                0x868baf4c        0x4 net/built-in.o
 .bss.timeStart
                0x868baf50        0x4 net/built-in.o
 .bss.timeHandler
                0x868baf54        0x4 net/built-in.o
 .bss.NetTryCount
                0x868baf58        0x4 net/built-in.o
 .bss.PktBuf    0x868baf5c     0x1e40 net/built-in.o
 .bss.env_changed_id.6982
                0x868bcd9c        0x4 net/built-in.o
 .bss.NetTxPacket
                0x868bcda0        0x4 net/built-in.o
                0x868bcda0                NetTxPacket
 .bss.NetBootFileXferSize
                0x868bcda4        0x4 net/built-in.o
                0x868bcda4                NetBootFileXferSize
 .bss.NetOurIP  0x868bcda8        0x4 net/built-in.o
                0x868bcda8                NetOurIP
 .bss.NetOurDNSIP
                0x868bcdac        0x4 net/built-in.o
                0x868bcdac                NetOurDNSIP
 .bss.NetOurNISDomain
                0x868bcdb0       0x20 net/built-in.o
                0x868bcdb0                NetOurNISDomain
 .bss.NetIPID   0x868bcdd0        0x4 net/built-in.o
                0x868bcdd0                NetIPID
 .bss.NetOurGatewayIP
                0x868bcdd4        0x4 net/built-in.o
                0x868bcdd4                NetOurGatewayIP
 .bss.arp_packet_handler
                0x868bcdd8        0x4 net/built-in.o
 .bss.NetOurHostName
                0x868bcddc       0x20 net/built-in.o
                0x868bcddc                NetOurHostName
 .bss.NetRestartWrap
                0x868bcdfc        0x4 net/built-in.o
                0x868bcdfc                NetRestartWrap
 .bss.NetRxPacketLen
                0x868bce00        0x4 net/built-in.o
                0x868bce00                NetRxPacketLen
 .bss.BootFile  0x868bce04       0x80 net/built-in.o
                0x868bce04                BootFile
 .bss.timeDelta
                0x868bce84        0x4 net/built-in.o
 .bss.NetServerEther
                0x868bce88        0x6 net/built-in.o
                0x868bce88                NetServerEther
 *fill*         0x868bce8e        0x2 
 .bss.NetOurSubnetMask
                0x868bce90        0x4 net/built-in.o
                0x868bce90                NetOurSubnetMask
 .bss.NfsOurPort
                0x868bce94        0x4 net/built-in.o
 .bss.NfsServerIP
                0x868bce98        0x4 net/built-in.o
 .bss.nfs_filename
                0x868bce9c        0x4 net/built-in.o
 .bss.nfs_len   0x868bcea0        0x4 net/built-in.o
 .bss.NfsSrvMountPort
                0x868bcea4        0x4 net/built-in.o
 .bss.dirfh     0x868bcea8       0x20 net/built-in.o
 .bss.NfsSrvNfsPort
                0x868bcec8        0x4 net/built-in.o
 .bss.rpc_id    0x868bcecc        0x4 net/built-in.o
 .bss.fs_mounted
                0x868bced0        0x4 net/built-in.o
 .bss.nfs_path_buff
                0x868bced4      0x800 net/built-in.o
 .bss.nfs_download_state
                0x868bd6d4        0x4 net/built-in.o
 .bss.nfs_path  0x868bd6d8        0x4 net/built-in.o
 .bss.filefh    0x868bd6dc       0x20 net/built-in.o
 .bss.NfsState  0x868bd6fc        0x4 net/built-in.o
 .bss.default_filename
                0x868bd700       0x4d net/built-in.o
 *fill*         0x868bd74d        0x3 
 .bss.NfsTimeoutCount
                0x868bd750        0x4 net/built-in.o
 .bss.NetPingIP
                0x868bd754        0x4 net/built-in.o
                0x868bd754                NetPingIP
 .bss.PingSeqNo
                0x868bd758        0x2 net/built-in.o
 *fill*         0x868bd75a        0x2 
 .bss.time_start
                0x868bd75c        0x4 net/built-in.o
 .bss.TftpTimeoutCount
                0x868bd760        0x4 net/built-in.o
 .bss.TftpBlockWrap
                0x868bd764        0x4 net/built-in.o
 .bss.TftpBlock
                0x868bd768        0x4 net/built-in.o
 .bss.TftpOurPort
                0x868bd76c        0x4 net/built-in.o
 .bss.TftpRemoteIP
                0x868bd770        0x4 net/built-in.o
 .bss.TftpState
                0x868bd774        0x4 net/built-in.o
 .bss.TftpRemotePort
                0x868bd778        0x4 net/built-in.o
 .bss.tftp_filename
                0x868bd77c       0x80 net/built-in.o
 .bss.TftpBlockWrapOffset
                0x868bd7fc        0x4 net/built-in.o
 .bss.TftpLastBlock
                0x868bd800        0x4 net/built-in.o
                0x868bd804                . = ALIGN (0x4)
                0x868bd804                __bss_limit = .

.bss_end        0x868bd804        0x0
 *(.__bss_end)
 .__bss_end     0x868bd804        0x0 arch/arm/lib/built-in.o
                0x868bd804                __bss_end

.dynsym         0x86877534       0x60
 *(.dynsym)
 .dynsym        0x86877534       0x60 arch/arm/cpu/armv7/start.o

.dynbss         0x86877594        0x0
 *(.dynbss)
 .dynbss        0x00000000        0x0 arch/arm/cpu/armv7/start.o

.dynstr         0x86877594       0x2a
 *(.dynstr*)
 .dynstr        0x86877594       0x2a arch/arm/cpu/armv7/start.o

.dynamic        0x868775c0       0x80
 *(.dynamic*)
 .dynamic       0x868775c0       0x80 arch/arm/cpu/armv7/start.o
                0x868775c0                _DYNAMIC

.plt            0x86877640        0x0
 *(.plt*)
 .plt           0x00000000        0x0 arch/arm/cpu/armv7/start.o

.interp         0x86877640       0x11
 *(.interp*)
 .interp        0x86877640       0x11 arch/arm/cpu/armv7/start.o

.gnu.hash
 *(.gnu.hash)

.gnu            0x86877654        0x0
 *(.gnu*)
 .gnu.version_d
                0x00000000        0x0 arch/arm/cpu/armv7/start.o
 .gnu.version   0x00000000        0x0 arch/arm/cpu/armv7/start.o
 .gnu.version_r
                0x00000000        0x0 arch/arm/cpu/armv7/start.o

.ARM.exidx      0x86877654        0x8
 *(.ARM.exidx*)
 .ARM.exidx     0x86877654        0x8 /opt/gcc-linaro-arm-linux-gnueabihf-4.9-2014.09_linux/bin/../lib/gcc/arm-linux-gnueabihf/4.9.2/libgcc.a(_divdi3.o)
 .ARM.exidx     0x8687765c        0x0 /opt/gcc-linaro-arm-linux-gnueabihf-4.9-2014.09_linux/bin/../lib/gcc/arm-linux-gnueabihf/4.9.2/libgcc.a(_udivdi3.o)
                                  0x8 (size before relaxing)

.gnu.linkonce.armexidx
 *(.gnu.linkonce.armexidx.*)
LOAD arch/arm/cpu/armv7/start.o
START GROUP
LOAD arch/arm/cpu/built-in.o
LOAD arch/arm/cpu/armv7/built-in.o
LOAD arch/arm/imx-common/built-in.o
LOAD arch/arm/lib/built-in.o
LOAD board/freescale/common/built-in.o
LOAD board/freescale/mx6g2c/built-in.o
LOAD common/built-in.o
LOAD disk/built-in.o
LOAD drivers/built-in.o
LOAD drivers/dma/built-in.o
LOAD drivers/gpio/built-in.o
LOAD drivers/i2c/built-in.o
LOAD drivers/mmc/built-in.o
LOAD drivers/mtd/built-in.o
LOAD drivers/mtd/nand/built-in.o
LOAD drivers/mtd/onenand/built-in.o
LOAD drivers/mtd/spi/built-in.o
LOAD drivers/mtd/ubi/built-in.o
LOAD drivers/net/built-in.o
LOAD drivers/net/phy/built-in.o
LOAD drivers/pci/built-in.o
LOAD drivers/power/built-in.o
LOAD drivers/power/battery/built-in.o
LOAD drivers/power/fuel_gauge/built-in.o
LOAD drivers/power/mfd/built-in.o
LOAD drivers/power/pmic/built-in.o
LOAD drivers/serial/built-in.o
LOAD drivers/spi/built-in.o
LOAD drivers/usb/eth/built-in.o
LOAD drivers/usb/gadget/built-in.o
LOAD drivers/usb/host/built-in.o
LOAD drivers/usb/musb-new/built-in.o
LOAD drivers/usb/musb/built-in.o
LOAD drivers/usb/phy/built-in.o
LOAD drivers/usb/ulpi/built-in.o
LOAD fs/built-in.o
LOAD lib/built-in.o
LOAD net/built-in.o
LOAD test/built-in.o
LOAD test/dm/built-in.o
END GROUP
LOAD arch/arm/lib/eabi_compat.o
LOAD /opt/gcc-linaro-arm-linux-gnueabihf-4.9-2014.09_linux/bin/../lib/gcc/arm-linux-gnueabihf/4.9.2/libgcc.a
OUTPUT(u-boot elf32-littlearm)

.ARM.attributes
                0x00000000       0x31
 .ARM.attributes
                0x00000000       0x1f arch/arm/cpu/armv7/start.o
 .ARM.attributes
                0x0000001f       0x31 arch/arm/cpu/armv7/built-in.o
 .ARM.attributes
                0x00000050       0x33 arch/arm/imx-common/built-in.o
 .ARM.attributes
                0x00000083       0x2f arch/arm/lib/built-in.o
 .ARM.attributes
                0x000000b2       0x33 board/freescale/mx6g2c/built-in.o
 .ARM.attributes
                0x000000e5       0x33 common/built-in.o
 .ARM.attributes
                0x00000118       0x33 disk/built-in.o
 .ARM.attributes
                0x0000014b       0x33 drivers/built-in.o
 .ARM.attributes
                0x0000017e       0x33 drivers/dma/built-in.o
 .ARM.attributes
                0x000001b1       0x33 drivers/gpio/built-in.o
 .ARM.attributes
                0x000001e4       0x33 drivers/i2c/built-in.o
 .ARM.attributes
                0x00000217       0x33 drivers/mmc/built-in.o
 .ARM.attributes
                0x0000024a       0x33 drivers/mtd/built-in.o
 .ARM.attributes
                0x0000027d       0x33 drivers/mtd/nand/built-in.o
 .ARM.attributes
                0x000002b0       0x33 drivers/mtd/ubi/built-in.o
 .ARM.attributes
                0x000002e3       0x33 drivers/net/built-in.o
 .ARM.attributes
                0x00000316       0x33 drivers/net/phy/built-in.o
 .ARM.attributes
                0x00000349       0x33 drivers/serial/built-in.o
 .ARM.attributes
                0x0000037c       0x33 drivers/usb/eth/built-in.o
 .ARM.attributes
                0x000003af       0x33 drivers/usb/host/built-in.o
 .ARM.attributes
                0x000003e2       0x33 fs/built-in.o
 .ARM.attributes
                0x00000415       0x33 lib/built-in.o
 .ARM.attributes
                0x00000448       0x33 net/built-in.o
 .ARM.attributes
                0x0000047b       0x33 test/dm/built-in.o
 .ARM.attributes
                0x000004ae       0x33 arch/arm/lib/eabi_compat.o
 .ARM.attributes
                0x000004e1       0x21 /opt/gcc-linaro-arm-linux-gnueabihf-4.9-2014.09_linux/bin/../lib/gcc/arm-linux-gnueabihf/4.9.2/libgcc.a(_udivsi3.o)
 .ARM.attributes
                0x00000502       0x21 /opt/gcc-linaro-arm-linux-gnueabihf-4.9-2014.09_linux/bin/../lib/gcc/arm-linux-gnueabihf/4.9.2/libgcc.a(_divsi3.o)
 .ARM.attributes
                0x00000523       0x21 /opt/gcc-linaro-arm-linux-gnueabihf-4.9-2014.09_linux/bin/../lib/gcc/arm-linux-gnueabihf/4.9.2/libgcc.a(_lshrdi3.o)
 .ARM.attributes
                0x00000544       0x21 /opt/gcc-linaro-arm-linux-gnueabihf-4.9-2014.09_linux/bin/../lib/gcc/arm-linux-gnueabihf/4.9.2/libgcc.a(_ashrdi3.o)
 .ARM.attributes
                0x00000565       0x21 /opt/gcc-linaro-arm-linux-gnueabihf-4.9-2014.09_linux/bin/../lib/gcc/arm-linux-gnueabihf/4.9.2/libgcc.a(_ashldi3.o)
 .ARM.attributes
                0x00000586       0x21 /opt/gcc-linaro-arm-linux-gnueabihf-4.9-2014.09_linux/bin/../lib/gcc/arm-linux-gnueabihf/4.9.2/libgcc.a(_aeabi_ldivmod.o)
 .ARM.attributes
                0x000005a7       0x21 /opt/gcc-linaro-arm-linux-gnueabihf-4.9-2014.09_linux/bin/../lib/gcc/arm-linux-gnueabihf/4.9.2/libgcc.a(_dvmd_lnx.o)
 .ARM.attributes
                0x000005c8       0x35 /opt/gcc-linaro-arm-linux-gnueabihf-4.9-2014.09_linux/bin/../lib/gcc/arm-linux-gnueabihf/4.9.2/libgcc.a(bpabi.o)
 .ARM.attributes
                0x000005fd       0x35 /opt/gcc-linaro-arm-linux-gnueabihf-4.9-2014.09_linux/bin/../lib/gcc/arm-linux-gnueabihf/4.9.2/libgcc.a(_divdi3.o)
 .ARM.attributes
                0x00000632       0x35 /opt/gcc-linaro-arm-linux-gnueabihf-4.9-2014.09_linux/bin/../lib/gcc/arm-linux-gnueabihf/4.9.2/libgcc.a(_udivdi3.o)

.comment        0x00000000       0x63
 .comment       0x00000000       0x63 arch/arm/cpu/armv7/built-in.o
                                0x258 (size before relaxing)
 .comment       0x00000000      0x2bc arch/arm/imx-common/built-in.o
 .comment       0x00000000      0x320 arch/arm/lib/built-in.o
 .comment       0x00000000       0xc8 board/freescale/mx6g2c/built-in.o
 .comment       0x00000000     0x1b58 common/built-in.o
 .comment       0x00000000       0xc8 disk/built-in.o
 .comment       0x00000000      0x6a4 drivers/built-in.o
 .comment       0x00000000       0x64 drivers/dma/built-in.o
 .comment       0x00000000       0x64 drivers/gpio/built-in.o
 .comment       0x00000000       0xc8 drivers/i2c/built-in.o
 .comment       0x00000000      0x12c drivers/mmc/built-in.o
 .comment       0x00000000       0xc8 drivers/mtd/built-in.o
 .comment       0x00000000      0x2bc drivers/mtd/nand/built-in.o
 .comment       0x00000000      0x4b0 drivers/mtd/ubi/built-in.o
 .comment       0x00000000       0x64 drivers/net/built-in.o
 .comment       0x00000000       0xc8 drivers/net/phy/built-in.o
 .comment       0x00000000       0xc8 drivers/serial/built-in.o
 .comment       0x00000000       0xc8 drivers/usb/eth/built-in.o
 .comment       0x00000000       0xc8 drivers/usb/host/built-in.o
 .comment       0x00000000      0x898 fs/built-in.o
 .comment       0x00000000      0xd48 lib/built-in.o
 .comment       0x00000000      0x320 net/built-in.o
 .comment       0x00000000       0x64 test/dm/built-in.o
 .comment       0x00000000       0x64 arch/arm/lib/eabi_compat.o

.note.GNU-stack
                0x00000000        0x0
 .note.GNU-stack
                0x00000000        0x0 arch/arm/cpu/armv7/built-in.o
 .note.GNU-stack
                0x00000000        0x0 arch/arm/imx-common/built-in.o
 .note.GNU-stack
                0x00000000        0x0 arch/arm/lib/built-in.o
 .note.GNU-stack
                0x00000000        0x0 board/freescale/mx6g2c/built-in.o
 .note.GNU-stack
                0x00000000        0x0 common/built-in.o
 .note.GNU-stack
                0x00000000        0x0 disk/built-in.o
 .note.GNU-stack
                0x00000000        0x0 drivers/built-in.o
 .note.GNU-stack
                0x00000000        0x0 drivers/dma/built-in.o
 .note.GNU-stack
                0x00000000        0x0 drivers/gpio/built-in.o
 .note.GNU-stack
                0x00000000        0x0 drivers/i2c/built-in.o
 .note.GNU-stack
                0x00000000        0x0 drivers/mmc/built-in.o
 .note.GNU-stack
                0x00000000        0x0 drivers/mtd/built-in.o
 .note.GNU-stack
                0x00000000        0x0 drivers/mtd/nand/built-in.o
 .note.GNU-stack
                0x00000000        0x0 drivers/mtd/ubi/built-in.o
 .note.GNU-stack
                0x00000000        0x0 drivers/net/built-in.o
 .note.GNU-stack
                0x00000000        0x0 drivers/net/phy/built-in.o
 .note.GNU-stack
                0x00000000        0x0 drivers/serial/built-in.o
 .note.GNU-stack
                0x00000000        0x0 drivers/usb/eth/built-in.o
 .note.GNU-stack
                0x00000000        0x0 drivers/usb/host/built-in.o
 .note.GNU-stack
                0x00000000        0x0 fs/built-in.o
 .note.GNU-stack
                0x00000000        0x0 lib/built-in.o
 .note.GNU-stack
                0x00000000        0x0 net/built-in.o
 .note.GNU-stack
                0x00000000        0x0 test/dm/built-in.o
 .note.GNU-stack
                0x00000000        0x0 arch/arm/lib/eabi_compat.o
 .note.GNU-stack
                0x00000000        0x0 /opt/gcc-linaro-arm-linux-gnueabihf-4.9-2014.09_linux/bin/../lib/gcc/arm-linux-gnueabihf/4.9.2/libgcc.a(_udivsi3.o)
 .note.GNU-stack
                0x00000000        0x0 /opt/gcc-linaro-arm-linux-gnueabihf-4.9-2014.09_linux/bin/../lib/gcc/arm-linux-gnueabihf/4.9.2/libgcc.a(_divsi3.o)
 .note.GNU-stack
                0x00000000        0x0 /opt/gcc-linaro-arm-linux-gnueabihf-4.9-2014.09_linux/bin/../lib/gcc/arm-linux-gnueabihf/4.9.2/libgcc.a(_lshrdi3.o)
 .note.GNU-stack
                0x00000000        0x0 /opt/gcc-linaro-arm-linux-gnueabihf-4.9-2014.09_linux/bin/../lib/gcc/arm-linux-gnueabihf/4.9.2/libgcc.a(_ashrdi3.o)
 .note.GNU-stack
                0x00000000        0x0 /opt/gcc-linaro-arm-linux-gnueabihf-4.9-2014.09_linux/bin/../lib/gcc/arm-linux-gnueabihf/4.9.2/libgcc.a(_ashldi3.o)
 .note.GNU-stack
                0x00000000        0x0 /opt/gcc-linaro-arm-linux-gnueabihf-4.9-2014.09_linux/bin/../lib/gcc/arm-linux-gnueabihf/4.9.2/libgcc.a(_aeabi_ldivmod.o)
 .note.GNU-stack
                0x00000000        0x0 /opt/gcc-linaro-arm-linux-gnueabihf-4.9-2014.09_linux/bin/../lib/gcc/arm-linux-gnueabihf/4.9.2/libgcc.a(_dvmd_lnx.o)
 .note.GNU-stack
                0x00000000        0x0 /opt/gcc-linaro-arm-linux-gnueabihf-4.9-2014.09_linux/bin/../lib/gcc/arm-linux-gnueabihf/4.9.2/libgcc.a(bpabi.o)
 .note.GNU-stack
                0x00000000        0x0 /opt/gcc-linaro-arm-linux-gnueabihf-4.9-2014.09_linux/bin/../lib/gcc/arm-linux-gnueabihf/4.9.2/libgcc.a(_divdi3.o)
 .note.GNU-stack
                0x00000000        0x0 /opt/gcc-linaro-arm-linux-gnueabihf-4.9-2014.09_linux/bin/../lib/gcc/arm-linux-gnueabihf/4.9.2/libgcc.a(_udivdi3.o)

.debug_line     0x00000000    0x2abf8
 .debug_line    0x00000000       0x89 arch/arm/cpu/armv7/start.o
 .debug_line    0x00000089      0xe4b arch/arm/cpu/armv7/built-in.o
 .debug_line    0x00000ed4      0xb77 arch/arm/imx-common/built-in.o
 .debug_line    0x00001a4b      0xd3e arch/arm/lib/built-in.o
 .debug_line    0x00002789      0x5de board/freescale/mx6g2c/built-in.o
 .debug_line    0x00002d67     0xc54f common/built-in.o
 .debug_line    0x0000f2b6      0x609 disk/built-in.o
 .debug_line    0x0000f8bf     0x2791 drivers/built-in.o
 .debug_line    0x00012050      0x388 drivers/dma/built-in.o
 .debug_line    0x000123d8      0x198 drivers/gpio/built-in.o
 .debug_line    0x00012570      0x568 drivers/i2c/built-in.o
 .debug_line    0x00012ad8      0xf42 drivers/mmc/built-in.o
 .debug_line    0x00013a1a      0xae1 drivers/mtd/built-in.o
 .debug_line    0x000144fb     0x2a33 drivers/mtd/nand/built-in.o
 .debug_line    0x00016f2e     0x3dac drivers/mtd/ubi/built-in.o
 .debug_line    0x0001acda      0x517 drivers/net/built-in.o
 .debug_line    0x0001b1f1      0x734 drivers/net/phy/built-in.o
 .debug_line    0x0001b925      0x54f drivers/serial/built-in.o
 .debug_line    0x0001be74      0x582 drivers/usb/eth/built-in.o
 .debug_line    0x0001c3f6      0x8d8 drivers/usb/host/built-in.o
 .debug_line    0x0001ccce     0x7693 fs/built-in.o
 .debug_line    0x00024361     0x4a79 lib/built-in.o
 .debug_line    0x00028dda     0x1af0 net/built-in.o
 .debug_line    0x0002a8ca      0x1ff test/dm/built-in.o
 .debug_line    0x0002aac9      0x12f arch/arm/lib/eabi_compat.o

.debug_info     0x00000000   0x145490
 .debug_info    0x00000000       0x6c arch/arm/cpu/armv7/start.o
 .debug_info    0x0000006c     0x6d55 arch/arm/cpu/armv7/built-in.o
 .debug_info    0x00006dc1     0x4578 arch/arm/imx-common/built-in.o
 .debug_info    0x0000b339     0x4726 arch/arm/lib/built-in.o
 .debug_info    0x0000fa5f     0x5c2e board/freescale/mx6g2c/built-in.o
 .debug_info    0x0001568d    0x53acd common/built-in.o
 .debug_info    0x0006915a     0x22f3 disk/built-in.o
 .debug_info    0x0006b44d     0xf1c3 drivers/built-in.o
 .debug_info    0x0007a610     0x442d drivers/dma/built-in.o
 .debug_info    0x0007ea3d      0x6f8 drivers/gpio/built-in.o
 .debug_info    0x0007f135     0x2aef drivers/i2c/built-in.o
 .debug_info    0x00081c24     0x5347 drivers/mmc/built-in.o
 .debug_info    0x00086f6b     0x3939 drivers/mtd/built-in.o
 .debug_info    0x0008a8a4    0x151b7 drivers/mtd/nand/built-in.o
 .debug_info    0x0009fa5b    0x20063 drivers/mtd/ubi/built-in.o
 .debug_info    0x000bfabe     0x30bc drivers/net/built-in.o
 .debug_info    0x000c2b7a     0x2d2d drivers/net/phy/built-in.o
 .debug_info    0x000c58a7     0x1bcf drivers/serial/built-in.o
 .debug_info    0x000c7476     0x2a90 drivers/usb/eth/built-in.o
 .debug_info    0x000c9f06     0x3dfc drivers/usb/host/built-in.o
 .debug_info    0x000cdd02    0x58c41 fs/built-in.o
 .debug_info    0x00126943    0x13182 lib/built-in.o
 .debug_info    0x00139ac5     0xa6a5 net/built-in.o
 .debug_info    0x0014416a      0xe5b test/dm/built-in.o
 .debug_info    0x00144fc5      0x4cb arch/arm/lib/eabi_compat.o

.debug_abbrev   0x00000000    0x2bcc6
 .debug_abbrev  0x00000000       0x14 arch/arm/cpu/armv7/start.o
 .debug_abbrev  0x00000014     0x1119 arch/arm/cpu/armv7/built-in.o
 .debug_abbrev  0x0000112d     0x1072 arch/arm/imx-common/built-in.o
 .debug_abbrev  0x0000219f     0x101d arch/arm/lib/built-in.o
 .debug_abbrev  0x000031bc      0x720 board/freescale/mx6g2c/built-in.o
 .debug_abbrev  0x000038dc     0xd890 common/built-in.o
 .debug_abbrev  0x0001116c      0x6fc disk/built-in.o
 .debug_abbrev  0x00011868     0x2df8 drivers/built-in.o
 .debug_abbrev  0x00014660      0x518 drivers/dma/built-in.o
 .debug_abbrev  0x00014b78      0x216 drivers/gpio/built-in.o
 .debug_abbrev  0x00014d8e      0x866 drivers/i2c/built-in.o
 .debug_abbrev  0x000155f4      0xd7a drivers/mmc/built-in.o
 .debug_abbrev  0x0001636e      0x940 drivers/mtd/built-in.o
 .debug_abbrev  0x00016cae     0x1ce3 drivers/mtd/nand/built-in.o
 .debug_abbrev  0x00018991     0x3852 drivers/mtd/ubi/built-in.o
 .debug_abbrev  0x0001c1e3      0x5ab drivers/net/built-in.o
 .debug_abbrev  0x0001c78e      0x7a0 drivers/net/phy/built-in.o
 .debug_abbrev  0x0001cf2e      0x6af drivers/serial/built-in.o
 .debug_abbrev  0x0001d5dd      0x73e drivers/usb/eth/built-in.o
 .debug_abbrev  0x0001dd1b      0x844 drivers/usb/host/built-in.o
 .debug_abbrev  0x0001e55f     0x7057 fs/built-in.o
 .debug_abbrev  0x000255b6     0x43a8 lib/built-in.o
 .debug_abbrev  0x0002995e     0x1eca net/built-in.o
 .debug_abbrev  0x0002b828      0x2e6 test/dm/built-in.o
 .debug_abbrev  0x0002bb0e      0x1b8 arch/arm/lib/eabi_compat.o

.debug_aranges  0x00000000     0x5160
 .debug_aranges
                0x00000000       0x20 arch/arm/cpu/armv7/start.o
 .debug_aranges
                0x00000020      0x278 arch/arm/cpu/armv7/built-in.o
 .debug_aranges
                0x00000298      0x188 arch/arm/imx-common/built-in.o
 .debug_aranges
                0x00000420      0x268 arch/arm/lib/built-in.o
 .debug_aranges
                0x00000688       0xe8 board/freescale/mx6g2c/built-in.o
 .debug_aranges
                0x00000770     0x1878 common/built-in.o
 .debug_aranges
                0x00001fe8       0xa0 disk/built-in.o
 .debug_aranges
                0x00002088      0x4c8 drivers/built-in.o
 .debug_aranges
                0x00002550       0x78 drivers/dma/built-in.o
 .debug_aranges
                0x000025c8       0x48 drivers/gpio/built-in.o
 .debug_aranges
                0x00002610      0x120 drivers/i2c/built-in.o
 .debug_aranges
                0x00002730      0x1a8 drivers/mmc/built-in.o
 .debug_aranges
                0x000028d8      0x1e0 drivers/mtd/built-in.o
 .debug_aranges
                0x00002ab8      0x418 drivers/mtd/nand/built-in.o
 .debug_aranges
                0x00002ed0      0x530 drivers/mtd/ubi/built-in.o
 .debug_aranges
                0x00003400       0x80 drivers/net/built-in.o
 .debug_aranges
                0x00003480      0x118 drivers/net/phy/built-in.o
 .debug_aranges
                0x00003598      0x110 drivers/serial/built-in.o
 .debug_aranges
                0x000036a8       0xb0 drivers/usb/eth/built-in.o
 .debug_aranges
                0x00003758      0x100 drivers/usb/host/built-in.o
 .debug_aranges
                0x00003858      0xb38 fs/built-in.o
 .debug_aranges
                0x00004390      0x9e8 lib/built-in.o
 .debug_aranges
                0x00004d78      0x370 net/built-in.o
 .debug_aranges
                0x000050e8       0x38 test/dm/built-in.o
 .debug_aranges
                0x00005120       0x40 arch/arm/lib/eabi_compat.o

.debug_frame    0x00000000     0xe944
 .debug_frame   0x00000000      0x560 arch/arm/cpu/armv7/built-in.o
 .debug_frame   0x00000560      0x358 arch/arm/imx-common/built-in.o
 .debug_frame   0x000008b8      0x3f0 arch/arm/lib/built-in.o
 .debug_frame   0x00000ca8      0x234 board/freescale/mx6g2c/built-in.o
 .debug_frame   0x00000edc     0x44c4 common/built-in.o
 .debug_frame   0x000053a0      0x210 disk/built-in.o
 .debug_frame   0x000055b0      0xbf8 drivers/built-in.o
 .debug_frame   0x000061a8      0x134 drivers/dma/built-in.o
 .debug_frame   0x000062dc       0x78 drivers/gpio/built-in.o
 .debug_frame   0x00006354      0x31c drivers/i2c/built-in.o
 .debug_frame   0x00006670      0x560 drivers/mmc/built-in.o
 .debug_frame   0x00006bd0      0x694 drivers/mtd/built-in.o
 .debug_frame   0x00007264      0xeec drivers/mtd/nand/built-in.o
 .debug_frame   0x00008150     0x10c4 drivers/mtd/ubi/built-in.o
 .debug_frame   0x00009214      0x188 drivers/net/built-in.o
 .debug_frame   0x0000939c      0x338 drivers/net/phy/built-in.o
 .debug_frame   0x000096d4      0x2b0 drivers/serial/built-in.o
 .debug_frame   0x00009984      0x22c drivers/usb/eth/built-in.o
 .debug_frame   0x00009bb0      0x2f8 drivers/usb/host/built-in.o
 .debug_frame   0x00009ea8     0x23a4 fs/built-in.o
 .debug_frame   0x0000c24c     0x1a4c lib/built-in.o
 .debug_frame   0x0000dc98      0xa88 net/built-in.o
 .debug_frame   0x0000e720       0x98 test/dm/built-in.o
 .debug_frame   0x0000e7b8       0x68 arch/arm/lib/eabi_compat.o
 .debug_frame   0x0000e820       0x20 /opt/gcc-linaro-arm-linux-gnueabihf-4.9-2014.09_linux/bin/../lib/gcc/arm-linux-gnueabihf/4.9.2/libgcc.a(_udivsi3.o)
 .debug_frame   0x0000e840       0x20 /opt/gcc-linaro-arm-linux-gnueabihf-4.9-2014.09_linux/bin/../lib/gcc/arm-linux-gnueabihf/4.9.2/libgcc.a(_divsi3.o)
 .debug_frame   0x0000e860       0x28 /opt/gcc-linaro-arm-linux-gnueabihf-4.9-2014.09_linux/bin/../lib/gcc/arm-linux-gnueabihf/4.9.2/libgcc.a(_aeabi_ldivmod.o)
 .debug_frame   0x0000e888       0x54 /opt/gcc-linaro-arm-linux-gnueabihf-4.9-2014.09_linux/bin/../lib/gcc/arm-linux-gnueabihf/4.9.2/libgcc.a(bpabi.o)
 .debug_frame   0x0000e8dc       0x38 /opt/gcc-linaro-arm-linux-gnueabihf-4.9-2014.09_linux/bin/../lib/gcc/arm-linux-gnueabihf/4.9.2/libgcc.a(_divdi3.o)
 .debug_frame   0x0000e914       0x30 /opt/gcc-linaro-arm-linux-gnueabihf-4.9-2014.09_linux/bin/../lib/gcc/arm-linux-gnueabihf/4.9.2/libgcc.a(_udivdi3.o)

.debug_str      0x00000000    0x24cc2
 .debug_str     0x00000000     0x1c57 arch/arm/cpu/armv7/built-in.o
                               0x425b (size before relaxing)
 .debug_str     0x00001c57      0x97b arch/arm/imx-common/built-in.o
                               0x36fe (size before relaxing)
 .debug_str     0x000025d2     0x114b arch/arm/lib/built-in.o
                               0x3ab1 (size before relaxing)
 .debug_str     0x0000371d     0x81f9 board/freescale/mx6g2c/built-in.o
                               0x9b67 (size before relaxing)
 .debug_str     0x0000b916     0x8afd common/built-in.o
                              0x2d11e (size before relaxing)
 .debug_str     0x00014413      0x26b disk/built-in.o
                                0xf39 (size before relaxing)
 .debug_str     0x0001467e     0x1c2a drivers/built-in.o
                               0x950d (size before relaxing)
 .debug_str     0x000162a8     0x391a drivers/dma/built-in.o
                               0x425e (size before relaxing)
 .debug_str     0x00019bc2       0x8a drivers/gpio/built-in.o
                                0x4f6 (size before relaxing)
 .debug_str     0x00019c4c      0x295 drivers/i2c/built-in.o
                               0x1134 (size before relaxing)
 .debug_str     0x00019ee1      0x552 drivers/mmc/built-in.o
                               0x202e (size before relaxing)
 .debug_str     0x0001a433      0x43b drivers/mtd/built-in.o
                               0x15e0 (size before relaxing)
 .debug_str     0x0001a86e     0x236b drivers/mtd/nand/built-in.o
                               0x97aa (size before relaxing)
 .debug_str     0x0001cbd9     0x1400 drivers/mtd/ubi/built-in.o
                               0xce62 (size before relaxing)
 .debug_str     0x0001dfd9      0x731 drivers/net/built-in.o
                               0x113c (size before relaxing)
 .debug_str     0x0001e70a      0x2ed drivers/net/phy/built-in.o
                               0x11a9 (size before relaxing)
 .debug_str     0x0001e9f7      0x1fa drivers/serial/built-in.o
                               0x1261 (size before relaxing)
 .debug_str     0x0001ebf1      0x316 drivers/usb/eth/built-in.o
                               0x14f1 (size before relaxing)
 .debug_str     0x0001ef07      0x667 drivers/usb/host/built-in.o
                               0x20ba (size before relaxing)
 .debug_str     0x0001f56e     0x30a6 fs/built-in.o
                              0x27fdd (size before relaxing)
 .debug_str     0x00022614     0x1480 lib/built-in.o
                               0xa0f6 (size before relaxing)
 .debug_str     0x00023a94     0x104b net/built-in.o
                               0x6076 (size before relaxing)
 .debug_str     0x00024adf      0x16c test/dm/built-in.o
                                0x9e8 (size before relaxing)
 .debug_str     0x00024c4b       0x77 arch/arm/lib/eabi_compat.o
                                0x48f (size before relaxing)

.debug_loc      0x00000000    0x7fda7
 .debug_loc     0x00000000     0x21ef arch/arm/cpu/armv7/built-in.o
 .debug_loc     0x000021ef      0xc70 arch/arm/imx-common/built-in.o
 .debug_loc     0x00002e5f      0x9b5 arch/arm/lib/built-in.o
 .debug_loc     0x00003814      0x3d7 board/freescale/mx6g2c/built-in.o
 .debug_loc     0x00003beb    0x22829 common/built-in.o
 .debug_loc     0x00026414     0x1090 disk/built-in.o
 .debug_loc     0x000274a4     0x6d3d drivers/built-in.o
 .debug_loc     0x0002e1e1      0xa9b drivers/dma/built-in.o
 .debug_loc     0x0002ec7c      0x523 drivers/gpio/built-in.o
 .debug_loc     0x0002f19f     0x1136 drivers/i2c/built-in.o
 .debug_loc     0x000302d5     0x2901 drivers/mmc/built-in.o
 .debug_loc     0x00032bd6     0x22b6 drivers/mtd/built-in.o
 .debug_loc     0x00034e8c     0xa7cc drivers/mtd/nand/built-in.o
 .debug_loc     0x0003f658     0xc8bb drivers/mtd/ubi/built-in.o
 .debug_loc     0x0004bf13     0x13cb drivers/net/built-in.o
 .debug_loc     0x0004d2de     0x1b5d drivers/net/phy/built-in.o
 .debug_loc     0x0004ee3b      0x558 drivers/serial/built-in.o
 .debug_loc     0x0004f393      0xa92 drivers/usb/eth/built-in.o
 .debug_loc     0x0004fe25     0x1cb7 drivers/usb/host/built-in.o
 .debug_loc     0x00051adc    0x19d04 fs/built-in.o
 .debug_loc     0x0006b7e0     0xff7a lib/built-in.o
 .debug_loc     0x0007b75a     0x4099 net/built-in.o
 .debug_loc     0x0007f7f3      0x4ac test/dm/built-in.o
 .debug_loc     0x0007fc9f      0x108 arch/arm/lib/eabi_compat.o

.debug_ranges   0x00000000     0xbc38
 .debug_ranges  0x00000000      0x438 arch/arm/cpu/armv7/built-in.o
 .debug_ranges  0x00000438      0x238 arch/arm/imx-common/built-in.o
 .debug_ranges  0x00000670      0x230 arch/arm/lib/built-in.o
 .debug_ranges  0x000008a0      0x110 board/freescale/mx6g2c/built-in.o
 .debug_ranges  0x000009b0     0x29e8 common/built-in.o
 .debug_ranges  0x00003398      0x120 disk/built-in.o
 .debug_ranges  0x000034b8      0xb58 drivers/built-in.o
 .debug_ranges  0x00004010       0xe8 drivers/dma/built-in.o
 .debug_ranges  0x000040f8       0x50 drivers/gpio/built-in.o
 .debug_ranges  0x00004148      0x228 drivers/i2c/built-in.o
 .debug_ranges  0x00004370      0x3a0 drivers/mmc/built-in.o
 .debug_ranges  0x00004710      0x318 drivers/mtd/built-in.o
 .debug_ranges  0x00004a28      0xce0 drivers/mtd/nand/built-in.o
 .debug_ranges  0x00005708     0x1370 drivers/mtd/ubi/built-in.o
 .debug_ranges  0x00006a78      0x3b8 drivers/net/built-in.o
 .debug_ranges  0x00006e30      0x320 drivers/net/phy/built-in.o
 .debug_ranges  0x00007150      0x108 drivers/serial/built-in.o
 .debug_ranges  0x00007258      0x178 drivers/usb/eth/built-in.o
 .debug_ranges  0x000073d0      0x1e8 drivers/usb/host/built-in.o
 .debug_ranges  0x000075b8     0x2a40 fs/built-in.o
 .debug_ranges  0x00009ff8     0x1480 lib/built-in.o
 .debug_ranges  0x0000b478      0x738 net/built-in.o
 .debug_ranges  0x0000bbb0       0x58 test/dm/built-in.o
 .debug_ranges  0x0000bc08       0x30 arch/arm/lib/eabi_compat.o
